gpasm-1.5.0 #1285 (Sep 12 2016) obj\Release\m   10-28-2017  12:33:54        PAGE  1


LOC    OBJECT CODE    LINE  SOURCE TEXT
  VALUE

                      00001 ;--------------------------------------------------------
                      00002 ; File Created by SDCC : free open source ANSI-C Compiler
                      00003 ; Version 3.6.0 #9615 (MINGW64)
                      00004 ;--------------------------------------------------------
                      00005 ; PIC port for the 14-bit core
                      00006 ;--------------------------------------------------------
                      00007 ;       .file   "main.c"
                      00008         list    p=16f877a
                      00009         radix dec
                      00010         include "p16f877a.inc"
                      00001         LIST
                      00002 
                      00003 ;==========================================================================
                      00004 ; Build date : Oct 21 2015
                      00005 ;  MPASM PIC16F877A processor include
                      00006 ; 
                      00007 ;  (c) Copyright 1999-2015 Microchip Technology, All rights reserved
                      00008 ;==========================================================================
                      00009 
                      00567         LIST
                      00011 ;--------------------------------------------------------
                      00012 ; config word(s)
                      00013 ;--------------------------------------------------------
2007   0000           00014         __config 0x3ff2
                      00015 ;--------------------------------------------------------
                      00016 ; external declarations
                      00017 ;--------------------------------------------------------
  0000                00018         extern  _STATUSbits
  0000                00019         extern  _PORTAbits
  0000                00020         extern  _PORTBbits
  0000                00021         extern  _PORTCbits
  0000                00022         extern  _PORTDbits
  0000                00023         extern  _PORTEbits
  0000                00024         extern  _INTCONbits
  0000                00025         extern  _PIR1bits
  0000                00026         extern  _PIR2bits
  0000                00027         extern  _T1CONbits
  0000                00028         extern  _T2CONbits
  0000                00029         extern  _SSPCONbits
  0000                00030         extern  _CCP1CONbits
  0000                00031         extern  _RCSTAbits
  0000                00032         extern  _CCP2CONbits
  0000                00033         extern  _ADCON0bits
  0000                00034         extern  _OPTION_REGbits
  0000                00035         extern  _TRISAbits
  0000                00036         extern  _TRISBbits
  0000                00037         extern  _TRISCbits
  0000                00038         extern  _TRISDbits
  0000                00039         extern  _TRISEbits
  0000                00040         extern  _PIE1bits
  0000                00041         extern  _PIE2bits
  0000                00042         extern  _PCONbits
  0000                00043         extern  _SSPCON2bits
gpasm-1.5.0 #1285 (Sep 12 2016) obj\Release\m   10-28-2017  12:33:54        PAGE  2


LOC    OBJECT CODE    LINE  SOURCE TEXT
  VALUE

  0000                00044         extern  _SSPSTATbits
  0000                00045         extern  _TXSTAbits
  0000                00046         extern  _CMCONbits
  0000                00047         extern  _CVRCONbits
  0000                00048         extern  _ADCON1bits
  0000                00049         extern  _EECON1bits
  0000                00050         extern  _INDF
  0000                00051         extern  _TMR0
  0000                00052         extern  _PCL
  0000                00053         extern  _STATUS
  0000                00054         extern  _FSR
  0000                00055         extern  _PORTA
  0000                00056         extern  _PORTB
  0000                00057         extern  _PORTC
  0000                00058         extern  _PORTD
  0000                00059         extern  _PORTE
  0000                00060         extern  _PCLATH
  0000                00061         extern  _INTCON
  0000                00062         extern  _PIR1
  0000                00063         extern  _PIR2
  0000                00064         extern  _TMR1
  0000                00065         extern  _TMR1L
  0000                00066         extern  _TMR1H
  0000                00067         extern  _T1CON
  0000                00068         extern  _TMR2
  0000                00069         extern  _T2CON
  0000                00070         extern  _SSPBUF
  0000                00071         extern  _SSPCON
  0000                00072         extern  _CCPR1
  0000                00073         extern  _CCPR1L
  0000                00074         extern  _CCPR1H
  0000                00075         extern  _CCP1CON
  0000                00076         extern  _RCSTA
  0000                00077         extern  _TXREG
  0000                00078         extern  _RCREG
  0000                00079         extern  _CCPR2
  0000                00080         extern  _CCPR2L
  0000                00081         extern  _CCPR2H
  0000                00082         extern  _CCP2CON
  0000                00083         extern  _ADRESH
  0000                00084         extern  _ADCON0
  0000                00085         extern  _OPTION_REG
  0000                00086         extern  _TRISA
  0000                00087         extern  _TRISB
  0000                00088         extern  _TRISC
  0000                00089         extern  _TRISD
  0000                00090         extern  _TRISE
  0000                00091         extern  _PIE1
  0000                00092         extern  _PIE2
  0000                00093         extern  _PCON
  0000                00094         extern  _SSPCON2
  0000                00095         extern  _PR2
  0000                00096         extern  _SSPADD
gpasm-1.5.0 #1285 (Sep 12 2016) obj\Release\m   10-28-2017  12:33:54        PAGE  3


LOC    OBJECT CODE    LINE  SOURCE TEXT
  VALUE

  0000                00097         extern  _SSPSTAT
  0000                00098         extern  _TXSTA
  0000                00099         extern  _SPBRG
  0000                00100         extern  _CMCON
  0000                00101         extern  _CVRCON
  0000                00102         extern  _ADRESL
  0000                00103         extern  _ADCON1
  0000                00104         extern  _EEDATA
  0000                00105         extern  _EEADR
  0000                00106         extern  _EEDATH
  0000                00107         extern  _EEADRH
  0000                00108         extern  _EECON1
  0000                00109         extern  _EECON2
  0000                00110         extern  __gptrget1
  0000                00111         extern  __mulchar
  0000                00112         extern  __divuchar
  0000                00113         extern  __moduchar
  0000                00114         extern  __gptrput1
  0000                00115         extern  __sdcc_gsinit_startup
                      00116 ;--------------------------------------------------------
                      00117 ; global declarations
                      00118 ;--------------------------------------------------------
  0000                00119         global  _delay_ms
  0000                00120         global  _LCD_send4Bits
  0000                00121         global  _LCD_send
  0000                00122         global  _LCD_command
  0000                00123         global  _LCD_putChar
  0000                00124         global  _LCD_gotoXY
  0000                00125         global  _LCD_print
  0000                00126         global  _LCD_init
  0000                00127         global  _I2C_start
  0000                00128         global  _I2C_stop
  0000                00129         global  _I2C_writeByte
  0000                00130         global  _I2C_readByte
  0000                00131         global  _BCDToDecimal
  0000                00132         global  _decimalToBCD
  0000                00133         global  _DS1307_timeRead
  0000                00134         global  _DS1307_timeWrite
  0000                00135         global  _LCDPrintDiaSemana
  0000                00136         global  _bisiesto
  0000                00137         global  _diasDelMes
  0000                00138         global  _LCDPrintNumero
  0000                00139         global  _timeShow
  0000                00140         global  _cicloTimeSet
  0000                00141         global  _timeSet
  0000                00142         global  _setup
  0000                00143         global  _main
  0000                00144         global  _DS1307_DiaSemana
  0000                00145         global  _DS1307_Dia
  0000                00146         global  _DS1307_Mes
  0000                00147         global  _DS1307_Ano
  0000                00148         global  _DS1307_Hora
  0000                00149         global  _DS1307_Minuto
gpasm-1.5.0 #1285 (Sep 12 2016) obj\Release\m   10-28-2017  12:33:54        PAGE  4


LOC    OBJECT CODE    LINE  SOURCE TEXT
  VALUE

  0000                00150         global  _DS1307_Segundo
  0000                00151         global  _editMenuState
                      00152 
  0000                00153         global PSAVE
  0000                00154         global SSAVE
  0000                00155         global WSAVE
  0000                00156         global STK12
  0000                00157         global STK11
  0000                00158         global STK10
  0000                00159         global STK09
  0000                00160         global STK08
  0000                00161         global STK07
  0000                00162         global STK06
  0000                00163         global STK05
  0000                00164         global STK04
  0000                00165         global STK03
  0000                00166         global STK02
  0000                00167         global STK01
  0000                00168         global STK00
                      00169 
                      00170 sharebank udata_ovr 0x0070
0070                  00171 PSAVE   res 1
0071                  00172 SSAVE   res 1
0072                  00173 WSAVE   res 1
0073                  00174 STK12   res 1
0074                  00175 STK11   res 1
0075                  00176 STK10   res 1
0076                  00177 STK09   res 1
0077                  00178 STK08   res 1
0078                  00179 STK07   res 1
0079                  00180 STK06   res 1
007A                  00181 STK05   res 1
007B                  00182 STK04   res 1
007C                  00183 STK03   res 1
007D                  00184 STK02   res 1
007E                  00185 STK01   res 1
007F                  00186 STK00   res 1
                      00187 
                      00188 ;--------------------------------------------------------
                      00189 ; global definitions
                      00190 ;--------------------------------------------------------
                      00191 UD_main_0       udata
0000                  00192 _DS1307_DiaSemana       res     1
                      00193 
                      00194 UD_main_1       udata
0000                  00195 _DS1307_Dia     res     1
                      00196 
                      00197 UD_main_2       udata
0000                  00198 _DS1307_Mes     res     1
                      00199 
                      00200 UD_main_3       udata
0000                  00201 _DS1307_Ano     res     1
                      00202 
gpasm-1.5.0 #1285 (Sep 12 2016) obj\Release\m   10-28-2017  12:33:54        PAGE  5


LOC    OBJECT CODE    LINE  SOURCE TEXT
  VALUE

                      00203 UD_main_4       udata
0000                  00204 _DS1307_Hora    res     1
                      00205 
                      00206 UD_main_5       udata
0000                  00207 _DS1307_Minuto  res     1
                      00208 
                      00209 UD_main_6       udata
0000                  00210 _DS1307_Segundo res     1
                      00211 
                      00212 UD_main_7       udata
0000                  00213 _editMenuState  res     1
                      00214 
                      00215 ;--------------------------------------------------------
                      00216 ; absolute symbol definitions
                      00217 ;--------------------------------------------------------
                      00218 ;--------------------------------------------------------
                      00219 ; compiler-defined variables
                      00220 ;--------------------------------------------------------
                      00221 UDL_main_0      udata
0000                  00222 r0x1009 res     1
0001                  00223 r0x1008 res     1
0002                  00224 r0x100A res     1
0003                  00225 r0x100B res     1
0004                  00226 r0x100C res     1
0005                  00227 r0x100D res     1
0006                  00228 r0x100E res     1
0007                  00229 r0x100F res     1
0008                  00230 r0x1010 res     1
0009                  00231 r0x1011 res     1
000A                  00232 r0x1013 res     1
000B                  00233 r0x1014 res     1
000C                  00234 r0x1015 res     1
000D                  00235 r0x1016 res     1
000E                  00236 r0x1017 res     1
000F                  00237 r0x1018 res     1
0010                  00238 r0x1019 res     1
0011                  00239 r0x101A res     1
0012                  00240 r0x101C res     1
0013                  00241 r0x101B res     1
0014                  00242 r0x101D res     1
0015                  00243 r0x101E res     1
0016                  00244 r0x1021 res     1
0017                  00245 r0x1020 res     1
0018                  00246 r0x101F res     1
0019                  00247 r0x1022 res     1
001A                  00248 r0x1023 res     1
001B                  00249 r0x1024 res     1
001C                  00250 r0x1026 res     1
001D                  00251 r0x1025 res     1
001E                  00252 r0x1027 res     1
                      00253 ;--------------------------------------------------------
                      00254 ; initialized data
                      00255 ;--------------------------------------------------------
gpasm-1.5.0 #1285 (Sep 12 2016) obj\Release\m   10-28-2017  12:33:54        PAGE  6


LOC    OBJECT CODE    LINE  SOURCE TEXT
  VALUE

                      00256 
                      00257 ID_main_0       code
0000                  00258 ___str_0
0000   3444           00259         retlw 0x44 ; 'D'
0001   344F           00260         retlw 0x4f ; 'O'
0002   344D           00261         retlw 0x4d ; 'M'
0003   3400           00262         retlw 0x00 ; '.'
                      00263 
                      00264 ID_main_1       code
0000                  00265 ___str_1
0000   344C           00266         retlw 0x4c ; 'L'
0001   3455           00267         retlw 0x55 ; 'U'
0002   344E           00268         retlw 0x4e ; 'N'
0003   3400           00269         retlw 0x00 ; '.'
                      00270 
                      00271 ID_main_2       code
0000                  00272 ___str_2
0000   344D           00273         retlw 0x4d ; 'M'
0001   3441           00274         retlw 0x41 ; 'A'
0002   3452           00275         retlw 0x52 ; 'R'
0003   3400           00276         retlw 0x00 ; '.'
                      00277 
                      00278 ID_main_3       code
0000                  00279 ___str_3
0000   344D           00280         retlw 0x4d ; 'M'
0001   3449           00281         retlw 0x49 ; 'I'
0002   3445           00282         retlw 0x45 ; 'E'
0003   3400           00283         retlw 0x00 ; '.'
                      00284 
                      00285 ID_main_4       code
0000                  00286 ___str_4
0000   344A           00287         retlw 0x4a ; 'J'
0001   3455           00288         retlw 0x55 ; 'U'
0002   3445           00289         retlw 0x45 ; 'E'
0003   3400           00290         retlw 0x00 ; '.'
                      00291 
                      00292 ID_main_5       code
0000                  00293 ___str_5
0000   3456           00294         retlw 0x56 ; 'V'
0001   3449           00295         retlw 0x49 ; 'I'
0002   3445           00296         retlw 0x45 ; 'E'
0003   3400           00297         retlw 0x00 ; '.'
                      00298 
                      00299 ID_main_6       code
0000                  00300 ___str_6
0000   3453           00301         retlw 0x53 ; 'S'
0001   3441           00302         retlw 0x41 ; 'A'
0002   3442           00303         retlw 0x42 ; 'B'
0003   3400           00304         retlw 0x00 ; '.'
                      00305 
                      00306 ID_main_7       code
0000                  00307 ___str_7
0000   3420           00308         retlw 0x20 ; ' '
gpasm-1.5.0 #1285 (Sep 12 2016) obj\Release\m   10-28-2017  12:33:54        PAGE  7


LOC    OBJECT CODE    LINE  SOURCE TEXT
  VALUE

0001   3420           00309         retlw 0x20 ; ' '
0002   3420           00310         retlw 0x20 ; ' '
0003   3400           00311         retlw 0x00 ; '.'
                      00312 ;--------------------------------------------------------
                      00313 ; overlayable items in internal ram 
                      00314 ;--------------------------------------------------------
                      00315 ;       udata_ovr
                      00316 ;--------------------------------------------------------
                      00317 ; reset vector 
                      00318 ;--------------------------------------------------------
                      00319 STARTUP code 0x0000
0000   0000           00320         nop
0001   0??? 0???      00321         pagesel __sdcc_gsinit_startup
0003   2???           00322         goto    __sdcc_gsinit_startup
                      00323 ;--------------------------------------------------------
                      00324 ; code
                      00325 ;--------------------------------------------------------
                      00326 code_main       code
                      00327 ;***
                      00328 ;  pBlock Stats: dbName = M
                      00329 ;***
                      00330 ;has an exit
                      00331 ;functions called:
                      00332 ;   _setup
                      00333 ;   _delay_ms
                      00334 ;   _timeSet
                      00335 ;   _DS1307_timeWrite
                      00336 ;   _DS1307_timeRead
                      00337 ;   _timeShow
                      00338 ;   _setup
                      00339 ;   _delay_ms
                      00340 ;   _timeSet
                      00341 ;   _DS1307_timeWrite
                      00342 ;   _DS1307_timeRead
                      00343 ;   _timeShow
                      00344 ;1 compiler assigned register :
                      00345 ;   STK00
                      00346 ;; Starting pCode block
                      00347 S_main__main    code
0000                  00348 _main:
                      00349 ; 2 exit points
                      00350 ;       .line   703; "main.c"   setup();
0000   0??? 0???      00351         PAGESEL _setup
0002   2???           00352         CALL    _setup
0003   0??? 0???      00353         PAGESEL $
0005                  00354 _00363_DS_:
                      00355 ;       .line   707; "main.c"   if(P_SET==LOW_ST)   // Comprueba si se ha pulsado SET
0005   0??? 0???      00356         BANKSEL _PORTAbits
0007   19??           00357         BTFSC   _PORTAbits,2
0008   2???           00358         GOTO    _00355_DS_
                      00359 ;       .line   709; "main.c"   editMenuState=1;
0009   3001           00360         MOVLW   0x01
000A   0??? 0???      00361         BANKSEL _editMenuState
gpasm-1.5.0 #1285 (Sep 12 2016) obj\Release\m   10-28-2017  12:33:54        PAGE  8


LOC    OBJECT CODE    LINE  SOURCE TEXT
  VALUE

000C   00??           00362         MOVWF   _editMenuState
000D                  00363 _00351_DS_:
                      00364 ;       .line   711; "main.c"   while(P_SET==LOW_ST) delay_ms(TIEMPO_ANTIREBOTE);
000D   0??? 0???      00365         BANKSEL _PORTAbits
000F   19??           00366         BTFSC   _PORTAbits,2
0010   2???           00367         GOTO    _00353_DS_
0011   300A           00368         MOVLW   0x0a
0012   00??           00369         MOVWF   STK00
0013   3000           00370         MOVLW   0x00
0014   0??? 0???      00371         PAGESEL _delay_ms
0016   2???           00372         CALL    _delay_ms
0017   0??? 0???      00373         PAGESEL $
0019   2???           00374         GOTO    _00351_DS_
001A                  00375 _00353_DS_:
                      00376 ;       .line   712; "main.c"   timeSet();
001A   0??? 0???      00377         PAGESEL _timeSet
001C   2???           00378         CALL    _timeSet
001D   0??? 0???      00379         PAGESEL $
                      00380 ;       .line   713; "main.c"   DS1307_timeWrite();
001F   0??? 0???      00381         PAGESEL _DS1307_timeWrite
0021   2???           00382         CALL    _DS1307_timeWrite
0022   0??? 0???      00383         PAGESEL $
0024                  00384 _00355_DS_:
                      00385 ;       .line   716; "main.c"   DS1307_timeRead();
0024   0??? 0???      00386         PAGESEL _DS1307_timeRead
0026   2???           00387         CALL    _DS1307_timeRead
0027   0??? 0???      00388         PAGESEL $
                      00389 ;       .line   718; "main.c"   timeShow();         // Actualiza display LCD con fecha y hora.
0029   0??? 0???      00390         PAGESEL _timeShow
002B   2???           00391         CALL    _timeShow
002C   0??? 0???      00392         PAGESEL $
002E                  00393 _00356_DS_:
                      00394 ;       .line   721; "main.c"   while(SOUT);        // Espera durante pulso alto.
002E   0??? 0???      00395         BANKSEL _PORTAbits
0030   19??           00396         BTFSC   _PORTAbits,3
0031   2???           00397         GOTO    _00356_DS_
0032                  00398 _00359_DS_:
                      00399 ;       .line   722; "main.c"   while(!SOUT);       // Espera durante pulso bajo.
0032   0??? 0???      00400         BANKSEL _PORTAbits
0034   19??           00401         BTFSC   _PORTAbits,3
0035   2???           00402         GOTO    _00363_DS_
0036   2???           00403         GOTO    _00359_DS_
0037   0008           00404         RETURN  
                      00405 ; exit point of _main
                      00406 
                      00407 ;***
                      00408 ;  pBlock Stats: dbName = C
                      00409 ;***
                      00410 ;has an exit
                      00411 ;functions called:
                      00412 ;   _I2C_start
                      00413 ;   _I2C_writeByte
                      00414 ;   _I2C_writeByte
gpasm-1.5.0 #1285 (Sep 12 2016) obj\Release\m   10-28-2017  12:33:54        PAGE  9


LOC    OBJECT CODE    LINE  SOURCE TEXT
  VALUE

                      00415 ;   _I2C_writeByte
                      00416 ;   _I2C_stop
                      00417 ;   _LCD_init
                      00418 ;   _I2C_start
                      00419 ;   _I2C_writeByte
                      00420 ;   _I2C_writeByte
                      00421 ;   _I2C_writeByte
                      00422 ;   _I2C_stop
                      00423 ;   _LCD_init
                      00424 ;; Starting pCode block
                      00425 S_main__setup   code
0000                  00426 _setup:
                      00427 ; 2 exit points
                      00428 ;       .line   676; "main.c"   CMCON  = 0x07;          // Deshabilita comparadores.
0000   3007           00429         MOVLW   0x07
0001   0??? 0???      00430         BANKSEL _CMCON
0003   00??           00431         MOVWF   _CMCON
                      00432 ;       .line   677; "main.c"   ADCON1 = 0x06;          // Todos los pines configurados como digitales.
0004   3006           00433         MOVLW   0x06
0005   00??           00434         MOVWF   _ADCON1
                      00435 ;       .line   678; "main.c"   ADCON0 = 0x00;          // Desactiva conversor A/D.
0006   0??? 0???      00436         BANKSEL _ADCON0
0008   01??           00437         CLRF    _ADCON0
                      00438 ;       .line   679; "main.c"   GIE    = false;         // Todas las interrupciones desactivadas.
0009   13??           00439         BCF     _INTCONbits,7
                      00440 ;       .line   681; "main.c"   P_INC_DIR = INPUT_PIN;  // Configura Pulsadores como Entradas.
000A   0??? 0???      00441         BANKSEL _TRISAbits
000C   14??           00442         BSF     _TRISAbits,0
                      00443 ;       .line   682; "main.c"   P_DEC_DIR = INPUT_PIN;
000D   14??           00444         BSF     _TRISAbits,1
                      00445 ;       .line   683; "main.c"   P_SET_DIR = INPUT_PIN;
000E   15??           00446         BSF     _TRISAbits,2
                      00447 ;       .line   684; "main.c"   SOUT_DIR  = INPUT_PIN;
000F   15??           00448         BSF     _TRISAbits,3
                      00449 ;       .line   686; "main.c"   I2C_start();            // Inicia comunicación I2C
0010   0??? 0???      00450         PAGESEL _I2C_start
0012   2???           00451         CALL    _I2C_start
0013   0??? 0???      00452         PAGESEL $
                      00453 ;       .line   687; "main.c"   I2C_writeByte(0xD0);         // Dirección I2C del DS1307.
0015   30D0           00454         MOVLW   0xd0
0016   0??? 0???      00455         PAGESEL _I2C_writeByte
0018   2???           00456         CALL    _I2C_writeByte
0019   0??? 0???      00457         PAGESEL $
                      00458 ;       .line   688; "main.c"   I2C_writeByte(0x07);         // Escribe en la dirección 07h.
001B   3007           00459         MOVLW   0x07
001C   0??? 0???      00460         PAGESEL _I2C_writeByte
001E   2???           00461         CALL    _I2C_writeByte
001F   0??? 0???      00462         PAGESEL $
                      00463 ;       .line   689; "main.c"   I2C_writeByte(DS1307_CONF);  // Configura 1 Hz en salida SOUT del DS1307
0021   3090           00464         MOVLW   0x90
0022   0??? 0???      00465         PAGESEL _I2C_writeByte
0024   2???           00466         CALL    _I2C_writeByte
0025   0??? 0???      00467         PAGESEL $
gpasm-1.5.0 #1285 (Sep 12 2016) obj\Release\m   10-28-2017  12:33:54        PAGE 10


LOC    OBJECT CODE    LINE  SOURCE TEXT
  VALUE

                      00468 ;       .line   690; "main.c"   I2C_stop();
0027   0??? 0???      00469         PAGESEL _I2C_stop
0029   2???           00470         CALL    _I2C_stop
002A   0??? 0???      00471         PAGESEL $
                      00472 ;       .line   692; "main.c"   LCD_init();             // Inicializa display LCD.
002C   0??? 0???      00473         PAGESEL _LCD_init
002E   2???           00474         CALL    _LCD_init
002F   0??? 0???      00475         PAGESEL $
0031   0008           00476         RETURN  
                      00477 ; exit point of _setup
                      00478 
                      00479 ;***
                      00480 ;  pBlock Stats: dbName = C
                      00481 ;***
                      00482 ;has an exit
                      00483 ;functions called:
                      00484 ;   _LCD_gotoXY
                      00485 ;   _LCDPrintNumero
                      00486 ;   _LCD_command
                      00487 ;   _cicloTimeSet
                      00488 ;   _cicloTimeSet
                      00489 ;   _diasDelMes
                      00490 ;   _cicloTimeSet
                      00491 ;   _cicloTimeSet
                      00492 ;   _cicloTimeSet
                      00493 ;   _cicloTimeSet
                      00494 ;   _LCD_command
                      00495 ;   _LCD_gotoXY
                      00496 ;   _LCDPrintNumero
                      00497 ;   _LCD_command
                      00498 ;   _cicloTimeSet
                      00499 ;   _cicloTimeSet
                      00500 ;   _diasDelMes
                      00501 ;   _cicloTimeSet
                      00502 ;   _cicloTimeSet
                      00503 ;   _cicloTimeSet
                      00504 ;   _cicloTimeSet
                      00505 ;   _LCD_command
                      00506 ;10 compiler assigned registers:
                      00507 ;   STK00
                      00508 ;   r0x1025
                      00509 ;   r0x1026
                      00510 ;   r0x1027
                      00511 ;   STK05
                      00512 ;   STK04
                      00513 ;   STK03
                      00514 ;   STK02
                      00515 ;   STK01
                      00516 ;   r0x1028
                      00517 ;; Starting pCode block
                      00518 S_main__timeSet code
0000                  00519 _timeSet:
                      00520 ; 2 exit points
gpasm-1.5.0 #1285 (Sep 12 2016) obj\Release\m   10-28-2017  12:33:54        PAGE 11


LOC    OBJECT CODE    LINE  SOURCE TEXT
  VALUE

                      00521 ;       .line   652; "main.c"   LCD_gotoXY(7,1);           // Goto posición de Segundos en display.
0000   3001           00522         MOVLW   0x01
0001   00??           00523         MOVWF   STK00
0002   3007           00524         MOVLW   0x07
0003   0??? 0???      00525         PAGESEL _LCD_gotoXY
0005   2???           00526         CALL    _LCD_gotoXY
0006   0??? 0???      00527         PAGESEL $
                      00528 ;       .line   653; "main.c"   LCDPrintNumero(0);         // 00 en posición de Segundos del display.
0008   3000           00529         MOVLW   0x00
0009   0??? 0???      00530         PAGESEL _LCDPrintNumero
000B   2???           00531         CALL    _LCDPrintNumero
000C   0??? 0???      00532         PAGESEL $
                      00533 ;       .line   654; "main.c"   LCD_CURSOR_UNDELINE;       // Cursor On
000E   300E           00534         MOVLW   0x0e
000F   0??? 0???      00535         PAGESEL _LCD_command
0011   2???           00536         CALL    _LCD_command
0012   0??? 0???      00537         PAGESEL $
                      00538 ;;unsigned compare: left < lit(0x7=7), size=1
0014                  00539 _00340_DS_:
                      00540 ;       .line   655; "main.c"   while(editMenuState<SALIR_SET_TIME)
0014   3007           00541         MOVLW   0x07
0015   0??? 0???      00542         BANKSEL _editMenuState
0017   02??           00543         SUBWF   _editMenuState,W
0018   1803           00544         BTFSC   STATUS,0
0019   2???           00545         GOTO    _00342_DS_
                      00546 ;;genSkipc:3257: created from rifx:00000000047658D0
001A                  00547 _00322_DS_:
                      00548 ;       .line   657; "main.c"   while(editMenuState==SET_ANO)     cicloTimeSet(0,99,7,0,&DS1307_Ano);   
                                     // Set año.
001A   0??? 0???      00549         BANKSEL _editMenuState
001C   08??           00550         MOVF    _editMenuState,W
001D   3A01           00551         XORLW   0x01
001E   1D03           00552         BTFSS   STATUS,2
001F   2???           00553         GOTO    _00325_DS_
0020   30??           00554         MOVLW   high (_DS1307_Ano + 0)
0021   0??? 0???      00555         BANKSEL r0x1025
0023   00??           00556         MOVWF   r0x1025
0024   30??           00557         MOVLW   (_DS1307_Ano + 0)
0025   00??           00558         MOVWF   r0x1026
0026   01??           00559         CLRF    r0x1027
0027   08??           00560         MOVF    r0x1026,W
0028   00??           00561         MOVWF   STK05
0029   08??           00562         MOVF    r0x1025,W
002A   00??           00563         MOVWF   STK04
002B   3000           00564         MOVLW   0x00
002C   00??           00565         MOVWF   STK03
002D   3000           00566         MOVLW   0x00
002E   00??           00567         MOVWF   STK02
002F   3007           00568         MOVLW   0x07
0030   00??           00569         MOVWF   STK01
0031   3063           00570         MOVLW   0x63
0032   00??           00571         MOVWF   STK00
0033   3000           00572         MOVLW   0x00
gpasm-1.5.0 #1285 (Sep 12 2016) obj\Release\m   10-28-2017  12:33:54        PAGE 12


LOC    OBJECT CODE    LINE  SOURCE TEXT
  VALUE

0034   0??? 0???      00573         PAGESEL _cicloTimeSet
0036   2???           00574         CALL    _cicloTimeSet
0037   0??? 0???      00575         PAGESEL $
0039   2???           00576         GOTO    _00322_DS_
003A                  00577 _00325_DS_:
                      00578 ;       .line   658; "main.c"   while(editMenuState==SET_MES)     cicloTimeSet(1,12,4,0,&DS1307_Mes);   
                                     // Set mes.
003A   0??? 0???      00579         BANKSEL _editMenuState
003C   08??           00580         MOVF    _editMenuState,W
003D   3A02           00581         XORLW   0x02
003E   1D03           00582         BTFSS   STATUS,2
003F   2???           00583         GOTO    _00328_DS_
0040   30??           00584         MOVLW   high (_DS1307_Mes + 0)
0041   0??? 0???      00585         BANKSEL r0x1025
0043   00??           00586         MOVWF   r0x1025
0044   30??           00587         MOVLW   (_DS1307_Mes + 0)
0045   00??           00588         MOVWF   r0x1026
0046   01??           00589         CLRF    r0x1027
0047   08??           00590         MOVF    r0x1026,W
0048   00??           00591         MOVWF   STK05
0049   08??           00592         MOVF    r0x1025,W
004A   00??           00593         MOVWF   STK04
004B   3000           00594         MOVLW   0x00
004C   00??           00595         MOVWF   STK03
004D   3000           00596         MOVLW   0x00
004E   00??           00597         MOVWF   STK02
004F   3004           00598         MOVLW   0x04
0050   00??           00599         MOVWF   STK01
0051   300C           00600         MOVLW   0x0c
0052   00??           00601         MOVWF   STK00
0053   3001           00602         MOVLW   0x01
0054   0??? 0???      00603         PAGESEL _cicloTimeSet
0056   2???           00604         CALL    _cicloTimeSet
0057   0??? 0???      00605         PAGESEL $
0059   2???           00606         GOTO    _00325_DS_
005A                  00607 _00328_DS_:
                      00608 ;       .line   659; "main.c"   while(editMenuState==SET_DIA)     cicloTimeSet(1,diasDelMes(),1,0,&DS130
                            7_Dia);  // Set día.
005A   0??? 0???      00609         BANKSEL _editMenuState
005C   08??           00610         MOVF    _editMenuState,W
005D   3A03           00611         XORLW   0x03
005E   1D03           00612         BTFSS   STATUS,2
005F   2???           00613         GOTO    _00331_DS_
0060   0??? 0???      00614         PAGESEL _diasDelMes
0062   2???           00615         CALL    _diasDelMes
0063   0??? 0???      00616         PAGESEL $
0065   0??? 0???      00617         BANKSEL r0x1026
0067   00??           00618         MOVWF   r0x1026
0068   30??           00619         MOVLW   high (_DS1307_Dia + 0)
0069   00??           00620         MOVWF   r0x1027
006A   30??           00621         MOVLW   (_DS1307_Dia + 0)
006B   00??           00622         MOVWF   r0x1025
006C   00??           00623         MOVWF   STK05
gpasm-1.5.0 #1285 (Sep 12 2016) obj\Release\m   10-28-2017  12:33:54        PAGE 13


LOC    OBJECT CODE    LINE  SOURCE TEXT
  VALUE

006D   08??           00624         MOVF    r0x1027,W
006E   00??           00625         MOVWF   STK04
006F   3000           00626         MOVLW   0x00
0070   00??           00627         MOVWF   STK03
0071   3000           00628         MOVLW   0x00
0072   00??           00629         MOVWF   STK02
0073   3001           00630         MOVLW   0x01
0074   00??           00631         MOVWF   STK01
0075   08??           00632         MOVF    r0x1026,W
0076   00??           00633         MOVWF   STK00
0077   3001           00634         MOVLW   0x01
0078   0??? 0???      00635         PAGESEL _cicloTimeSet
007A   2???           00636         CALL    _cicloTimeSet
007B   0??? 0???      00637         PAGESEL $
007D   2???           00638         GOTO    _00328_DS_
007E                  00639 _00331_DS_:
                      00640 ;       .line   660; "main.c"   while(editMenuState==SET_HORA)    cicloTimeSet(0,23,1,1,&DS1307_Hora);  
                                     // Set hora.
007E   0??? 0???      00641         BANKSEL _editMenuState
0080   08??           00642         MOVF    _editMenuState,W
0081   3A04           00643         XORLW   0x04
0082   1D03           00644         BTFSS   STATUS,2
0083   2???           00645         GOTO    _00334_DS_
0084   30??           00646         MOVLW   high (_DS1307_Hora + 0)
0085   0??? 0???      00647         BANKSEL r0x1025
0087   00??           00648         MOVWF   r0x1025
0088   30??           00649         MOVLW   (_DS1307_Hora + 0)
0089   00??           00650         MOVWF   r0x1026
008A   01??           00651         CLRF    r0x1027
008B   08??           00652         MOVF    r0x1026,W
008C   00??           00653         MOVWF   STK05
008D   08??           00654         MOVF    r0x1025,W
008E   00??           00655         MOVWF   STK04
008F   3000           00656         MOVLW   0x00
0090   00??           00657         MOVWF   STK03
0091   3001           00658         MOVLW   0x01
0092   00??           00659         MOVWF   STK02
0093   3001           00660         MOVLW   0x01
0094   00??           00661         MOVWF   STK01
0095   3017           00662         MOVLW   0x17
0096   00??           00663         MOVWF   STK00
0097   3000           00664         MOVLW   0x00
0098   0??? 0???      00665         PAGESEL _cicloTimeSet
009A   2???           00666         CALL    _cicloTimeSet
009B   0??? 0???      00667         PAGESEL $
009D   2???           00668         GOTO    _00331_DS_
009E                  00669 _00334_DS_:
                      00670 ;       .line   661; "main.c"   while(editMenuState==SET_MINUTO)  cicloTimeSet(0,59,4,1,&DS1307_Minuto);
                                     // Set minutos.
009E   0??? 0???      00671         BANKSEL _editMenuState
00A0   08??           00672         MOVF    _editMenuState,W
00A1   3A05           00673         XORLW   0x05
00A2   1D03           00674         BTFSS   STATUS,2
gpasm-1.5.0 #1285 (Sep 12 2016) obj\Release\m   10-28-2017  12:33:54        PAGE 14


LOC    OBJECT CODE    LINE  SOURCE TEXT
  VALUE

00A3   2???           00675         GOTO    _00337_DS_
00A4   30??           00676         MOVLW   high (_DS1307_Minuto + 0)
00A5   0??? 0???      00677         BANKSEL r0x1025
00A7   00??           00678         MOVWF   r0x1025
00A8   30??           00679         MOVLW   (_DS1307_Minuto + 0)
00A9   00??           00680         MOVWF   r0x1026
00AA   01??           00681         CLRF    r0x1027
00AB   08??           00682         MOVF    r0x1026,W
00AC   00??           00683         MOVWF   STK05
00AD   08??           00684         MOVF    r0x1025,W
00AE   00??           00685         MOVWF   STK04
00AF   3000           00686         MOVLW   0x00
00B0   00??           00687         MOVWF   STK03
00B1   3001           00688         MOVLW   0x01
00B2   00??           00689         MOVWF   STK02
00B3   3004           00690         MOVLW   0x04
00B4   00??           00691         MOVWF   STK01
00B5   303B           00692         MOVLW   0x3b
00B6   00??           00693         MOVWF   STK00
00B7   3000           00694         MOVLW   0x00
00B8   0??? 0???      00695         PAGESEL _cicloTimeSet
00BA   2???           00696         CALL    _cicloTimeSet
00BB   0??? 0???      00697         PAGESEL $
00BD   2???           00698         GOTO    _00334_DS_
00BE                  00699 _00337_DS_:
                      00700 ;       .line   662; "main.c"   while(editMenuState==SET_DIA_SEM) cicloTimeSet(1,7,12,0,&DS1307_DiaSeman
                            a);      // Set día de la semana.
00BE   0??? 0???      00701         BANKSEL _editMenuState
00C0   08??           00702         MOVF    _editMenuState,W
00C1   3A06           00703         XORLW   0x06
00C2   1D03           00704         BTFSS   STATUS,2
00C3   2???           00705         GOTO    _00340_DS_
00C4   30??           00706         MOVLW   high (_DS1307_DiaSemana + 0)
00C5   0??? 0???      00707         BANKSEL r0x1025
00C7   00??           00708         MOVWF   r0x1025
00C8   30??           00709         MOVLW   (_DS1307_DiaSemana + 0)
00C9   00??           00710         MOVWF   r0x1026
00CA   01??           00711         CLRF    r0x1027
00CB   08??           00712         MOVF    r0x1026,W
00CC   00??           00713         MOVWF   STK05
00CD   08??           00714         MOVF    r0x1025,W
00CE   00??           00715         MOVWF   STK04
00CF   3000           00716         MOVLW   0x00
00D0   00??           00717         MOVWF   STK03
00D1   3000           00718         MOVLW   0x00
00D2   00??           00719         MOVWF   STK02
00D3   300C           00720         MOVLW   0x0c
00D4   00??           00721         MOVWF   STK01
00D5   3007           00722         MOVLW   0x07
00D6   00??           00723         MOVWF   STK00
00D7   3001           00724         MOVLW   0x01
00D8   0??? 0???      00725         PAGESEL _cicloTimeSet
00DA   2???           00726         CALL    _cicloTimeSet
gpasm-1.5.0 #1285 (Sep 12 2016) obj\Release\m   10-28-2017  12:33:54        PAGE 15


LOC    OBJECT CODE    LINE  SOURCE TEXT
  VALUE

00DB   0??? 0???      00727         PAGESEL $
00DD   2???           00728         GOTO    _00337_DS_
00DE                  00729 _00342_DS_:
                      00730 ;       .line   664; "main.c"   LCD_CURSOR_OFF;
00DE   300C           00731         MOVLW   0x0c
00DF   0??? 0???      00732         PAGESEL _LCD_command
00E1   2???           00733         CALL    _LCD_command
00E2   0??? 0???      00734         PAGESEL $
00E4   0008           00735         RETURN  
                      00736 ; exit point of _timeSet
                      00737 
                      00738 ;***
                      00739 ;  pBlock Stats: dbName = C
                      00740 ;***
                      00741 ;has an exit
                      00742 ;functions called:
                      00743 ;   _LCD_command
                      00744 ;   __gptrget1
                      00745 ;   __gptrput1
                      00746 ;   __gptrput1
                      00747 ;   __gptrget1
                      00748 ;   __gptrput1
                      00749 ;   __gptrget1
                      00750 ;   __gptrput1
                      00751 ;   _LCD_gotoXY
                      00752 ;   _LCDPrintDiaSemana
                      00753 ;   __gptrget1
                      00754 ;   _LCDPrintNumero
                      00755 ;   _delay_ms
                      00756 ;   _delay_ms
                      00757 ;   __gptrget1
                      00758 ;   __gptrput1
                      00759 ;   _LCD_gotoXY
                      00760 ;   _LCD_command
                      00761 ;   _LCD_command
                      00762 ;   __gptrget1
                      00763 ;   __gptrput1
                      00764 ;   __gptrput1
                      00765 ;   __gptrget1
                      00766 ;   __gptrput1
                      00767 ;   __gptrget1
                      00768 ;   __gptrput1
                      00769 ;   _LCD_gotoXY
                      00770 ;   _LCDPrintDiaSemana
                      00771 ;   __gptrget1
                      00772 ;   _LCDPrintNumero
                      00773 ;   _delay_ms
                      00774 ;   _delay_ms
                      00775 ;   __gptrget1
                      00776 ;   __gptrput1
                      00777 ;   _LCD_gotoXY
                      00778 ;   _LCD_command
                      00779 ;16 compiler assigned registers:
gpasm-1.5.0 #1285 (Sep 12 2016) obj\Release\m   10-28-2017  12:33:54        PAGE 16


LOC    OBJECT CODE    LINE  SOURCE TEXT
  VALUE

                      00780 ;   r0x101B
                      00781 ;   STK00
                      00782 ;   r0x101C
                      00783 ;   STK01
                      00784 ;   r0x101D
                      00785 ;   STK02
                      00786 ;   r0x101E
                      00787 ;   STK03
                      00788 ;   r0x101F
                      00789 ;   STK04
                      00790 ;   r0x1020
                      00791 ;   STK05
                      00792 ;   r0x1021
                      00793 ;   r0x1022
                      00794 ;   r0x1023
                      00795 ;   r0x1024
                      00796 ;; Starting pCode block
                      00797 S_main__cicloTimeSet    code
0000                  00798 _cicloTimeSet:
                      00799 ; 2 exit points
                      00800 ;       .line   597; "main.c"   void cicloTimeSet(uint8_t limInf, uint8_t limSup, uint8_t lcdX, uint8_t 
                            lcdY, uint8_t* dato)
0000   0??? 0???      00801         BANKSEL r0x101B
0002   00??           00802         MOVWF   r0x101B
0003   08??           00803         MOVF    STK00,W
0004   00??           00804         MOVWF   r0x101C
0005   08??           00805         MOVF    STK01,W
0006   00??           00806         MOVWF   r0x101D
0007   08??           00807         MOVF    STK02,W
0008   00??           00808         MOVWF   r0x101E
0009   08??           00809         MOVF    STK03,W
000A   00??           00810         MOVWF   r0x101F
000B   08??           00811         MOVF    STK04,W
000C   00??           00812         MOVWF   r0x1020
000D   08??           00813         MOVF    STK05,W
000E   00??           00814         MOVWF   r0x1021
                      00815 ;       .line   599; "main.c"   while((P_INC && P_DEC)==LOW_ST)  // Si se pulsa INC o DEC.
000F   01??           00816         CLRF    r0x1022
0010   08??           00817         MOVF    r0x101D,W
0011   3A0C           00818         XORLW   0x0c
0012   1903           00819         BTFSC   STATUS,2
0013   0A??           00820         INCF    r0x1022,F
0014                  00821 _00269_DS_:
0014   0??? 0???      00822         BANKSEL _PORTAbits
0016   1C??           00823         BTFSS   _PORTAbits,0
0017   2???           00824         GOTO    _00270_DS_
0018   18??           00825         BTFSC   _PORTAbits,1
0019   2???           00826         GOTO    _00271_DS_
001A                  00827 _00270_DS_:
                      00828 ;       .line   601; "main.c"   LCD_CURSOR_OFF;
001A   300C           00829         MOVLW   0x0c
001B   0??? 0???      00830         PAGESEL _LCD_command
001D   2???           00831         CALL    _LCD_command
gpasm-1.5.0 #1285 (Sep 12 2016) obj\Release\m   10-28-2017  12:33:54        PAGE 17


LOC    OBJECT CODE    LINE  SOURCE TEXT
  VALUE

001E   0??? 0???      00832         PAGESEL $
                      00833 ;       .line   602; "main.c"   if(P_INC==LOW_ST)            // Se ha pulsado INC.
0020   0??? 0???      00834         BANKSEL _PORTAbits
0022   18??           00835         BTFSC   _PORTAbits,0
0023   2???           00836         GOTO    _00264_DS_
                      00837 ;       .line   604; "main.c"   (*dato)++;
0024   0??? 0???      00838         BANKSEL r0x1021
0026   08??           00839         MOVF    r0x1021,W
0027   00??           00840         MOVWF   STK01
0028   08??           00841         MOVF    r0x1020,W
0029   00??           00842         MOVWF   STK00
002A   08??           00843         MOVF    r0x101F,W
002B   0??? 0???      00844         PAGESEL __gptrget1
002D   2???           00845         CALL    __gptrget1
002E   0??? 0???      00846         PAGESEL $
0030   0??? 0???      00847         BANKSEL r0x1023
0032   00??           00848         MOVWF   r0x1023
0033   0A??           00849         INCF    r0x1023,F
0034   08??           00850         MOVF    r0x1023,W
0035   00??           00851         MOVWF   STK02
0036   08??           00852         MOVF    r0x1021,W
0037   00??           00853         MOVWF   STK01
0038   08??           00854         MOVF    r0x1020,W
0039   00??           00855         MOVWF   STK00
003A   08??           00856         MOVF    r0x101F,W
003B   0??? 0???      00857         PAGESEL __gptrput1
003D   2???           00858         CALL    __gptrput1
003E   0??? 0???      00859         PAGESEL $
                      00860 ;       .line   605; "main.c"   if(*dato>limSup) *dato=limInf;  // Controla que no se supere el límite s
                            uperior.
0040   0??? 0???      00861         BANKSEL r0x1023
0042   08??           00862         MOVF    r0x1023,W
0043   02??           00863         SUBWF   r0x101C,W
0044   1803           00864         BTFSC   STATUS,0
0045   2???           00865         GOTO    _00265_DS_
                      00866 ;;genSkipc:3257: created from rifx:00000000047658D0
0046   08??           00867         MOVF    r0x101B,W
0047   00??           00868         MOVWF   STK02
0048   08??           00869         MOVF    r0x1021,W
0049   00??           00870         MOVWF   STK01
004A   08??           00871         MOVF    r0x1020,W
004B   00??           00872         MOVWF   STK00
004C   08??           00873         MOVF    r0x101F,W
004D   0??? 0???      00874         PAGESEL __gptrput1
004F   2???           00875         CALL    __gptrput1
0050   0??? 0???      00876         PAGESEL $
0052   2???           00877         GOTO    _00265_DS_
0053                  00878 _00264_DS_:
                      00879 ;       .line   609; "main.c"   (*dato)--;
0053   0??? 0???      00880         BANKSEL r0x1021
0055   08??           00881         MOVF    r0x1021,W
0056   00??           00882         MOVWF   STK01
0057   08??           00883         MOVF    r0x1020,W
gpasm-1.5.0 #1285 (Sep 12 2016) obj\Release\m   10-28-2017  12:33:54        PAGE 18


LOC    OBJECT CODE    LINE  SOURCE TEXT
  VALUE

0058   00??           00884         MOVWF   STK00
0059   08??           00885         MOVF    r0x101F,W
005A   0??? 0???      00886         PAGESEL __gptrget1
005C   2???           00887         CALL    __gptrget1
005D   0??? 0???      00888         PAGESEL $
005F   0??? 0???      00889         BANKSEL r0x1023
0061   00??           00890         MOVWF   r0x1023
0062   03??           00891         DECF    r0x1023,F
0063   08??           00892         MOVF    r0x1023,W
0064   00??           00893         MOVWF   STK02
0065   08??           00894         MOVF    r0x1021,W
0066   00??           00895         MOVWF   STK01
0067   08??           00896         MOVF    r0x1020,W
0068   00??           00897         MOVWF   STK00
0069   08??           00898         MOVF    r0x101F,W
006A   0??? 0???      00899         PAGESEL __gptrput1
006C   2???           00900         CALL    __gptrput1
006D   0??? 0???      00901         PAGESEL $
                      00902 ;       .line   610; "main.c"   if((*dato<limInf)||(*dato==0xFF)) *dato=limSup; // Si limInf==0 (*Dato)-
                            - puede ser 0xFF.
006F   0??? 0???      00903         BANKSEL r0x1021
0071   08??           00904         MOVF    r0x1021,W
0072   00??           00905         MOVWF   STK01
0073   08??           00906         MOVF    r0x1020,W
0074   00??           00907         MOVWF   STK00
0075   08??           00908         MOVF    r0x101F,W
0076   0??? 0???      00909         PAGESEL __gptrget1
0078   2???           00910         CALL    __gptrget1
0079   0??? 0???      00911         PAGESEL $
007B   0??? 0???      00912         BANKSEL r0x1024
007D   00??           00913         MOVWF   r0x1024
007E   08??           00914         MOVF    r0x101B,W
007F   02??           00915         SUBWF   r0x1023,W
0080   1C03           00916         BTFSS   STATUS,0
0081   2???           00917         GOTO    _00260_DS_
                      00918 ;;genSkipc:3257: created from rifx:00000000047658D0
0082   08??           00919         MOVF    r0x1024,W
0083   3AFF           00920         XORLW   0xff
0084   1D03           00921         BTFSS   STATUS,2
0085   2???           00922         GOTO    _00265_DS_
0086                  00923 _00260_DS_:
0086   0??? 0???      00924         BANKSEL r0x101C
0088   08??           00925         MOVF    r0x101C,W
0089   00??           00926         MOVWF   STK02
008A   08??           00927         MOVF    r0x1021,W
008B   00??           00928         MOVWF   STK01
008C   08??           00929         MOVF    r0x1020,W
008D   00??           00930         MOVWF   STK00
008E   08??           00931         MOVF    r0x101F,W
008F   0??? 0???      00932         PAGESEL __gptrput1
0091   2???           00933         CALL    __gptrput1
0092   0??? 0???      00934         PAGESEL $
0094                  00935 _00265_DS_:
gpasm-1.5.0 #1285 (Sep 12 2016) obj\Release\m   10-28-2017  12:33:54        PAGE 19


LOC    OBJECT CODE    LINE  SOURCE TEXT
  VALUE

                      00936 ;       .line   613; "main.c"   LCD_gotoXY(lcdX, lcdY);            // Coloca el cursor en la posición de
                             inicio de impresión del dato editado.
0094   0??? 0???      00937         BANKSEL r0x101E
0096   08??           00938         MOVF    r0x101E,W
0097   00??           00939         MOVWF   STK00
0098   08??           00940         MOVF    r0x101D,W
0099   0??? 0???      00941         PAGESEL _LCD_gotoXY
009B   2???           00942         CALL    _LCD_gotoXY
009C   0??? 0???      00943         PAGESEL $
                      00944 ;       .line   614; "main.c"   if(lcdX==12) LCDPrintDiaSemana();  // Si se está editando del día de la 
                            semana, se imprime el texto.
009E   0??? 0???      00945         BANKSEL r0x1022
00A0   08??           00946         MOVF    r0x1022,W
00A1   1903           00947         BTFSC   STATUS,2
00A2   2???           00948         GOTO    _00267_DS_
00A3   0??? 0???      00949         PAGESEL _LCDPrintDiaSemana
00A5   2???           00950         CALL    _LCDPrintDiaSemana
00A6   0??? 0???      00951         PAGESEL $
00A8   2???           00952         GOTO    _00268_DS_
00A9                  00953 _00267_DS_:
                      00954 ;       .line   615; "main.c"   else LCDPrintNumero(*dato);        // El resto son variables numéricas d
                            e 2 dígitos.
00A9   0??? 0???      00955         BANKSEL r0x1021
00AB   08??           00956         MOVF    r0x1021,W
00AC   00??           00957         MOVWF   STK01
00AD   08??           00958         MOVF    r0x1020,W
00AE   00??           00959         MOVWF   STK00
00AF   08??           00960         MOVF    r0x101F,W
00B0   0??? 0???      00961         PAGESEL __gptrget1
00B2   2???           00962         CALL    __gptrget1
00B3   0??? 0???      00963         PAGESEL $
00B5   0??? 0???      00964         BANKSEL r0x1023
00B7   00??           00965         MOVWF   r0x1023
00B8   0??? 0???      00966         PAGESEL _LCDPrintNumero
00BA   2???           00967         CALL    _LCDPrintNumero
00BB   0??? 0???      00968         PAGESEL $
00BD                  00969 _00268_DS_:
                      00970 ;       .line   616; "main.c"   delay_ms(TIEMPO_REPETICION);       // Espera el tiempo de autorepetición
                             de la tecla pulsada.
00BD   30F4           00971         MOVLW   0xf4
00BE   00??           00972         MOVWF   STK00
00BF   3001           00973         MOVLW   0x01
00C0   0??? 0???      00974         PAGESEL _delay_ms
00C2   2???           00975         CALL    _delay_ms
00C3   0??? 0???      00976         PAGESEL $
00C5   2???           00977         GOTO    _00269_DS_
00C6                  00978 _00271_DS_:
                      00979 ;       .line   619; "main.c"   if(P_SET==LOW_ST)                // Si se pulsa SET.
00C6   0??? 0???      00980         BANKSEL _PORTAbits
00C8   19??           00981         BTFSC   _PORTAbits,2
00C9   2???           00982         GOTO    _00278_DS_
                      00983 ;       .line   621; "main.c"   editMenuState++;
00CA   0??? 0???      00984         BANKSEL _editMenuState
gpasm-1.5.0 #1285 (Sep 12 2016) obj\Release\m   10-28-2017  12:33:54        PAGE 20


LOC    OBJECT CODE    LINE  SOURCE TEXT
  VALUE

00CC   0A??           00985         INCF    _editMenuState,F
00CD                  00986 _00272_DS_:
                      00987 ;       .line   622; "main.c"   while(P_SET==LOW_ST) delay_ms(TIEMPO_ANTIREBOTE);  // Espera antirebote 
                            mecánico del pulsador.
00CD   0??? 0???      00988         BANKSEL _PORTAbits
00CF   19??           00989         BTFSC   _PORTAbits,2
00D0   2???           00990         GOTO    _00274_DS_
00D1   300A           00991         MOVLW   0x0a
00D2   00??           00992         MOVWF   STK00
00D3   3000           00993         MOVLW   0x00
00D4   0??? 0???      00994         PAGESEL _delay_ms
00D6   2???           00995         CALL    _delay_ms
00D7   0??? 0???      00996         PAGESEL $
00D9   2???           00997         GOTO    _00272_DS_
00DA                  00998 _00274_DS_:
                      00999 ;       .line   623; "main.c"   if(*dato>limSup) *dato=limSup;  // Evita posible bug al modificar el año
                             o el mes, si
00DA   0??? 0???      01000         BANKSEL r0x1021
00DC   08??           01001         MOVF    r0x1021,W
00DD   00??           01002         MOVWF   STK01
00DE   08??           01003         MOVF    r0x1020,W
00DF   00??           01004         MOVWF   STK00
00E0   08??           01005         MOVF    r0x101F,W
00E1   0??? 0???      01006         PAGESEL __gptrget1
00E3   2???           01007         CALL    __gptrget1
00E4   0??? 0???      01008         PAGESEL $
00E6   0??? 0???      01009         BANKSEL r0x101B
00E8   00??           01010         MOVWF   r0x101B
00E9   02??           01011         SUBWF   r0x101C,W
00EA   1803           01012         BTFSC   STATUS,0
00EB   2???           01013         GOTO    _00278_DS_
                      01014 ;;genSkipc:3257: created from rifx:00000000047658D0
00EC   08??           01015         MOVF    r0x101C,W
00ED   00??           01016         MOVWF   STK02
00EE   08??           01017         MOVF    r0x1021,W
00EF   00??           01018         MOVWF   STK01
00F0   08??           01019         MOVF    r0x1020,W
00F1   00??           01020         MOVWF   STK00
00F2   08??           01021         MOVF    r0x101F,W
00F3   0??? 0???      01022         PAGESEL __gptrput1
00F5   2???           01023         CALL    __gptrput1
00F6   0??? 0???      01024         PAGESEL $
00F8                  01025 _00278_DS_:
                      01026 ;       .line   627; "main.c"   if(lcdX==12) lcdX++;       // Si se está editando el día de la semana, s
                            e desplaza el cursor
00F8   3000           01027         MOVLW   0x00
                      01028 ;       .line   630; "main.c"   LCD_gotoXY(++lcdX, lcdY);  // Coloca el cursor en la parte izquierda de 
                            la variable editada.
00F9   0??? 0???      01029         BANKSEL r0x1022
00FB   04??           01030         IORWF   r0x1022,W
00FC   1D03           01031         BTFSS   STATUS,2
00FD   0A??           01032         INCF    r0x101D,F
00FE   0A??           01033         INCF    r0x101D,F
gpasm-1.5.0 #1285 (Sep 12 2016) obj\Release\m   10-28-2017  12:33:54        PAGE 21


LOC    OBJECT CODE    LINE  SOURCE TEXT
  VALUE

00FF   08??           01034         MOVF    r0x101E,W
0100   00??           01035         MOVWF   STK00
0101   08??           01036         MOVF    r0x101D,W
0102   0??? 0???      01037         PAGESEL _LCD_gotoXY
0104   2???           01038         CALL    _LCD_gotoXY
0105   0??? 0???      01039         PAGESEL $
                      01040 ;       .line   631; "main.c"   LCD_CURSOR_UNDELINE;       // Cursor On
0107   300E           01041         MOVLW   0x0e
0108   0??? 0???      01042         PAGESEL _LCD_command
010A   2???           01043         CALL    _LCD_command
010B   0??? 0???      01044         PAGESEL $
010D   0008           01045         RETURN  
                      01046 ; exit point of _cicloTimeSet
                      01047 
                      01048 ;***
                      01049 ;  pBlock Stats: dbName = C
                      01050 ;***
                      01051 ;has an exit
                      01052 ;functions called:
                      01053 ;   _LCD_gotoXY
                      01054 ;   _LCDPrintNumero
                      01055 ;   _LCD_putChar
                      01056 ;   _LCDPrintNumero
                      01057 ;   _LCD_putChar
                      01058 ;   _LCDPrintNumero
                      01059 ;   _LCD_print
                      01060 ;   _LCDPrintDiaSemana
                      01061 ;   _LCD_gotoXY
                      01062 ;   _LCDPrintNumero
                      01063 ;   _LCD_putChar
                      01064 ;   _LCDPrintNumero
                      01065 ;   _LCD_putChar
                      01066 ;   _LCDPrintNumero
                      01067 ;   _LCD_gotoXY
                      01068 ;   _LCDPrintNumero
                      01069 ;   _LCD_putChar
                      01070 ;   _LCDPrintNumero
                      01071 ;   _LCD_putChar
                      01072 ;   _LCDPrintNumero
                      01073 ;   _LCD_print
                      01074 ;   _LCDPrintDiaSemana
                      01075 ;   _LCD_gotoXY
                      01076 ;   _LCDPrintNumero
                      01077 ;   _LCD_putChar
                      01078 ;   _LCDPrintNumero
                      01079 ;   _LCD_putChar
                      01080 ;   _LCDPrintNumero
                      01081 ;5 compiler assigned registers:
                      01082 ;   STK00
                      01083 ;   r0x101B
                      01084 ;   r0x101C
                      01085 ;   r0x101D
                      01086 ;   STK01
gpasm-1.5.0 #1285 (Sep 12 2016) obj\Release\m   10-28-2017  12:33:54        PAGE 22


LOC    OBJECT CODE    LINE  SOURCE TEXT
  VALUE

                      01087 ;; Starting pCode block
                      01088 S_main__timeShow        code
0000                  01089 _timeShow:
                      01090 ; 2 exit points
                      01091 ;       .line   569; "main.c"   LCD_gotoXY(1,0);
0000   3000           01092         MOVLW   0x00
0001   00??           01093         MOVWF   STK00
0002   3001           01094         MOVLW   0x01
0003   0??? 0???      01095         PAGESEL _LCD_gotoXY
0005   2???           01096         CALL    _LCD_gotoXY
0006   0??? 0???      01097         PAGESEL $
                      01098 ;       .line   570; "main.c"   LCDPrintNumero(DS1307_Dia);
0008   0??? 0???      01099         BANKSEL _DS1307_Dia
000A   08??           01100         MOVF    _DS1307_Dia,W
000B   0??? 0???      01101         PAGESEL _LCDPrintNumero
000D   2???           01102         CALL    _LCDPrintNumero
000E   0??? 0???      01103         PAGESEL $
                      01104 ;       .line   571; "main.c"   LCD_putChar('/');
0010   302F           01105         MOVLW   0x2f
0011   0??? 0???      01106         PAGESEL _LCD_putChar
0013   2???           01107         CALL    _LCD_putChar
0014   0??? 0???      01108         PAGESEL $
                      01109 ;       .line   572; "main.c"   LCDPrintNumero(DS1307_Mes);
0016   0??? 0???      01110         BANKSEL _DS1307_Mes
0018   08??           01111         MOVF    _DS1307_Mes,W
0019   0??? 0???      01112         PAGESEL _LCDPrintNumero
001B   2???           01113         CALL    _LCDPrintNumero
001C   0??? 0???      01114         PAGESEL $
                      01115 ;       .line   573; "main.c"   LCD_putChar('/');
001E   302F           01116         MOVLW   0x2f
001F   0??? 0???      01117         PAGESEL _LCD_putChar
0021   2???           01118         CALL    _LCD_putChar
0022   0??? 0???      01119         PAGESEL $
                      01120 ;       .line   574; "main.c"   LCDPrintNumero(DS1307_Ano);
0024   0??? 0???      01121         BANKSEL _DS1307_Ano
0026   08??           01122         MOVF    _DS1307_Ano,W
0027   0??? 0???      01123         PAGESEL _LCDPrintNumero
0029   2???           01124         CALL    _LCDPrintNumero
002A   0??? 0???      01125         PAGESEL $
                      01126 ;       .line   575; "main.c"   LCD_print("   ");
002C   30??           01127         MOVLW   high (___str_7 + 0)
002D   0??? 0???      01128         BANKSEL r0x101B
002F   00??           01129         MOVWF   r0x101B
0030   30??           01130         MOVLW   (___str_7 + 0)
0031   00??           01131         MOVWF   r0x101C
0032   3080           01132         MOVLW   0x80
0033   00??           01133         MOVWF   r0x101D
0034   08??           01134         MOVF    r0x101C,W
0035   00??           01135         MOVWF   STK01
0036   08??           01136         MOVF    r0x101B,W
0037   00??           01137         MOVWF   STK00
0038   08??           01138         MOVF    r0x101D,W
0039   0??? 0???      01139         PAGESEL _LCD_print
gpasm-1.5.0 #1285 (Sep 12 2016) obj\Release\m   10-28-2017  12:33:54        PAGE 23


LOC    OBJECT CODE    LINE  SOURCE TEXT
  VALUE

003B   2???           01140         CALL    _LCD_print
003C   0??? 0???      01141         PAGESEL $
                      01142 ;       .line   576; "main.c"   LCDPrintDiaSemana();
003E   0??? 0???      01143         PAGESEL _LCDPrintDiaSemana
0040   2???           01144         CALL    _LCDPrintDiaSemana
0041   0??? 0???      01145         PAGESEL $
                      01146 ;       .line   577; "main.c"   LCD_gotoXY(1,1);
0043   3001           01147         MOVLW   0x01
0044   00??           01148         MOVWF   STK00
0045   3001           01149         MOVLW   0x01
0046   0??? 0???      01150         PAGESEL _LCD_gotoXY
0048   2???           01151         CALL    _LCD_gotoXY
0049   0??? 0???      01152         PAGESEL $
                      01153 ;       .line   578; "main.c"   LCDPrintNumero(DS1307_Hora);
004B   0??? 0???      01154         BANKSEL _DS1307_Hora
004D   08??           01155         MOVF    _DS1307_Hora,W
004E   0??? 0???      01156         PAGESEL _LCDPrintNumero
0050   2???           01157         CALL    _LCDPrintNumero
0051   0??? 0???      01158         PAGESEL $
                      01159 ;       .line   579; "main.c"   LCD_putChar(':');
0053   303A           01160         MOVLW   0x3a
0054   0??? 0???      01161         PAGESEL _LCD_putChar
0056   2???           01162         CALL    _LCD_putChar
0057   0??? 0???      01163         PAGESEL $
                      01164 ;       .line   580; "main.c"   LCDPrintNumero(DS1307_Minuto);
0059   0??? 0???      01165         BANKSEL _DS1307_Minuto
005B   08??           01166         MOVF    _DS1307_Minuto,W
005C   0??? 0???      01167         PAGESEL _LCDPrintNumero
005E   2???           01168         CALL    _LCDPrintNumero
005F   0??? 0???      01169         PAGESEL $
                      01170 ;       .line   581; "main.c"   LCD_putChar(':');
0061   303A           01171         MOVLW   0x3a
0062   0??? 0???      01172         PAGESEL _LCD_putChar
0064   2???           01173         CALL    _LCD_putChar
0065   0??? 0???      01174         PAGESEL $
                      01175 ;       .line   582; "main.c"   LCDPrintNumero(DS1307_Segundo);
0067   0??? 0???      01176         BANKSEL _DS1307_Segundo
0069   08??           01177         MOVF    _DS1307_Segundo,W
006A   0??? 0???      01178         PAGESEL _LCDPrintNumero
006C   2???           01179         CALL    _LCDPrintNumero
006D   0??? 0???      01180         PAGESEL $
006F   0008           01181         RETURN  
                      01182 ; exit point of _timeShow
                      01183 
                      01184 ;***
                      01185 ;  pBlock Stats: dbName = C
                      01186 ;***
                      01187 ;has an exit
                      01188 ;functions called:
                      01189 ;   __divuchar
                      01190 ;   _LCD_putChar
                      01191 ;   __moduchar
                      01192 ;   _LCD_putChar
gpasm-1.5.0 #1285 (Sep 12 2016) obj\Release\m   10-28-2017  12:33:54        PAGE 24


LOC    OBJECT CODE    LINE  SOURCE TEXT
  VALUE

                      01193 ;   __divuchar
                      01194 ;   _LCD_putChar
                      01195 ;   __moduchar
                      01196 ;   _LCD_putChar
                      01197 ;3 compiler assigned registers:
                      01198 ;   r0x1014
                      01199 ;   STK00
                      01200 ;   r0x1015
                      01201 ;; Starting pCode block
                      01202 S_main__LCDPrintNumero  code
0000                  01203 _LCDPrintNumero:
                      01204 ; 2 exit points
                      01205 ;       .line   555; "main.c"   void LCDPrintNumero(uint8_t numero)
0000   0??? 0???      01206         BANKSEL r0x1014
0002   00??           01207         MOVWF   r0x1014
                      01208 ;       .line   557; "main.c"   LCD_putChar((numero/10)+48);   // Imprime dígito decena.
0003   300A           01209         MOVLW   0x0a
0004   00??           01210         MOVWF   STK00
0005   08??           01211         MOVF    r0x1014,W
0006   0??? 0???      01212         PAGESEL __divuchar
0008   2???           01213         CALL    __divuchar
0009   0??? 0???      01214         PAGESEL $
000B   0??? 0???      01215         BANKSEL r0x1015
000D   00??           01216         MOVWF   r0x1015
000E   3030           01217         MOVLW   0x30
000F   07??           01218         ADDWF   r0x1015,F
0010   08??           01219         MOVF    r0x1015,W
0011   0??? 0???      01220         PAGESEL _LCD_putChar
0013   2???           01221         CALL    _LCD_putChar
0014   0??? 0???      01222         PAGESEL $
                      01223 ;       .line   558; "main.c"   LCD_putChar((numero%10)+48);   // Imprime dígito unidad.
0016   300A           01224         MOVLW   0x0a
0017   00??           01225         MOVWF   STK00
0018   0??? 0???      01226         BANKSEL r0x1014
001A   08??           01227         MOVF    r0x1014,W
001B   0??? 0???      01228         PAGESEL __moduchar
001D   2???           01229         CALL    __moduchar
001E   0??? 0???      01230         PAGESEL $
0020   0??? 0???      01231         BANKSEL r0x1015
0022   00??           01232         MOVWF   r0x1015
0023   3030           01233         MOVLW   0x30
0024   07??           01234         ADDWF   r0x1015,W
0025   00??           01235         MOVWF   r0x1014
0026   0??? 0???      01236         PAGESEL _LCD_putChar
0028   2???           01237         CALL    _LCD_putChar
0029   0??? 0???      01238         PAGESEL $
002B   0008           01239         RETURN  
                      01240 ; exit point of _LCDPrintNumero
                      01241 
                      01242 ;***
                      01243 ;  pBlock Stats: dbName = C
                      01244 ;***
                      01245 ;has an exit
gpasm-1.5.0 #1285 (Sep 12 2016) obj\Release\m   10-28-2017  12:33:54        PAGE 25


LOC    OBJECT CODE    LINE  SOURCE TEXT
  VALUE

                      01246 ;functions called:
                      01247 ;   _bisiesto
                      01248 ;   _bisiesto
                      01249 ;1 compiler assigned register :
                      01250 ;   r0x100A
                      01251 ;; Starting pCode block
                      01252 S_main__diasDelMes      code
0000                  01253 _diasDelMes:
                      01254 ; 2 exit points
                      01255 ;       .line   537; "main.c"   if(DS1307_Mes==2)                 // Mes = febrero
0000   0??? 0???      01256         BANKSEL _DS1307_Mes
0002   08??           01257         MOVF    _DS1307_Mes,W
0003   3A02           01258         XORLW   0x02
0004   1D03           01259         BTFSS   STATUS,2
0005   2???           01260         GOTO    _00218_DS_
                      01261 ;       .line   539; "main.c"   return bisiesto() ? 29 : 28;  // Bisiesto: 29 días / No bisiesto: 28 día
                            s.
0006   0??? 0???      01262         PAGESEL _bisiesto
0008   2???           01263         CALL    _bisiesto
0009   0??? 0???      01264         PAGESEL $
000B   0??? 0???      01265         BANKSEL r0x100A
000D   00??           01266         MOVWF   r0x100A
000E   08??           01267         MOVF    r0x100A,W
000F   1903           01268         BTFSC   STATUS,2
0010   2???           01269         GOTO    _00226_DS_
0011   301D           01270         MOVLW   0x1d
0012   00??           01271         MOVWF   r0x100A
0013   2???           01272         GOTO    _00227_DS_
0014                  01273 _00226_DS_:
0014   301C           01274         MOVLW   0x1c
0015   0??? 0???      01275         BANKSEL r0x100A
0017   00??           01276         MOVWF   r0x100A
0018                  01277 _00227_DS_:
0018   0??? 0???      01278         BANKSEL r0x100A
001A   08??           01279         MOVF    r0x100A,W
001B   2???           01280         GOTO    _00224_DS_
001C                  01281 _00218_DS_:
                      01282 ;       .line   541; "main.c"   if((DS1307_Mes==4) || (DS1307_Mes==6) || (DS1307_Mes==9) || (DS1307_Mes=
                            =11))
001C   0??? 0???      01283         BANKSEL _DS1307_Mes
001E   08??           01284         MOVF    _DS1307_Mes,W
001F   3A04           01285         XORLW   0x04
0020   1903           01286         BTFSC   STATUS,2
0021   2???           01287         GOTO    _00219_DS_
0022   08??           01288         MOVF    _DS1307_Mes,W
0023   3A06           01289         XORLW   0x06
0024   1903           01290         BTFSC   STATUS,2
0025   2???           01291         GOTO    _00219_DS_
0026   08??           01292         MOVF    _DS1307_Mes,W
0027   3A09           01293         XORLW   0x09
0028   1903           01294         BTFSC   STATUS,2
0029   2???           01295         GOTO    _00219_DS_
002A   08??           01296         MOVF    _DS1307_Mes,W
gpasm-1.5.0 #1285 (Sep 12 2016) obj\Release\m   10-28-2017  12:33:54        PAGE 26


LOC    OBJECT CODE    LINE  SOURCE TEXT
  VALUE

002B   3A0B           01297         XORLW   0x0b
002C   1D03           01298         BTFSS   STATUS,2
002D   2???           01299         GOTO    _00220_DS_
002E                  01300 _00219_DS_:
                      01301 ;       .line   543; "main.c"   return 30;                    // Meses de 30 días.
002E   301E           01302         MOVLW   0x1e
002F   2???           01303         GOTO    _00224_DS_
0030                  01304 _00220_DS_:
                      01305 ;       .line   545; "main.c"   return 31;                        // Meses de 31 días.
0030   301F           01306         MOVLW   0x1f
0031                  01307 _00224_DS_:
0031   0008           01308         RETURN  
                      01309 ; exit point of _diasDelMes
                      01310 
                      01311 ;***
                      01312 ;  pBlock Stats: dbName = C
                      01313 ;***
                      01314 ;has an exit
                      01315 ;2 compiler assigned registers:
                      01316 ;   r0x1008
                      01317 ;   r0x1009
                      01318 ;; Starting pCode block
                      01319 S_main__bisiesto        code
0000                  01320 _bisiesto:
                      01321 ; 2 exit points
                      01322 ;       .line   525; "main.c"   return !(DS1307_Ano%4);
0000   3003           01323         MOVLW   0x03
0001   0??? 0???      01324         BANKSEL _DS1307_Ano
0003   05??           01325         ANDWF   _DS1307_Ano,W
0004   0??? 0???      01326         BANKSEL r0x1008
0006   00??           01327         MOVWF   r0x1008
0007   08??           01328         MOVF    r0x1008,W
0008   3000           01329         MOVLW   0x00
0009   1903           01330         BTFSC   STATUS,2
000A   3001           01331         MOVLW   0x01
                      01332 ;;1     MOVWF   r0x1009
000B   0008           01333         RETURN  
                      01334 ; exit point of _bisiesto
                      01335 
                      01336 ;***
                      01337 ;  pBlock Stats: dbName = C
                      01338 ;***
                      01339 ;has an exit
                      01340 ;functions called:
                      01341 ;   _LCD_print
                      01342 ;   _LCD_print
                      01343 ;   _LCD_print
                      01344 ;   _LCD_print
                      01345 ;   _LCD_print
                      01346 ;   _LCD_print
                      01347 ;   _LCD_print
                      01348 ;   _LCD_print
                      01349 ;   _LCD_print
gpasm-1.5.0 #1285 (Sep 12 2016) obj\Release\m   10-28-2017  12:33:54        PAGE 27


LOC    OBJECT CODE    LINE  SOURCE TEXT
  VALUE

                      01350 ;   _LCD_print
                      01351 ;   _LCD_print
                      01352 ;   _LCD_print
                      01353 ;   _LCD_print
                      01354 ;   _LCD_print
                      01355 ;5 compiler assigned registers:
                      01356 ;   r0x1018
                      01357 ;   r0x1019
                      01358 ;   r0x101A
                      01359 ;   STK01
                      01360 ;   STK00
                      01361 ;; Starting pCode block
                      01362 S_main__LCDPrintDiaSemana       code
0000                  01363 _LCDPrintDiaSemana:
                      01364 ; 2 exit points
                      01365 ;;unsigned compare: left < lit(0x1=1), size=1
                      01366 ;       .line   480; "main.c"   switch (DS1307_DiaSemana)
0000   3001           01367         MOVLW   0x01
0001   0??? 0???      01368         BANKSEL _DS1307_DiaSemana
0003   02??           01369         SUBWF   _DS1307_DiaSemana,W
0004   1C03           01370         BTFSS   STATUS,0
0005   2???           01371         GOTO    _00198_DS_
                      01372 ;;genSkipc:3257: created from rifx:00000000047658D0
                      01373 ;;swapping arguments (AOP_TYPEs 1/3)
                      01374 ;;unsigned compare: left >= lit(0x8=8), size=1
0006   3008           01375         MOVLW   0x08
0007   02??           01376         SUBWF   _DS1307_DiaSemana,W
0008   1803           01377         BTFSC   STATUS,0
0009   2???           01378         GOTO    _00198_DS_
                      01379 ;;genSkipc:3257: created from rifx:00000000047658D0
000A   03??           01380         DECF    _DS1307_DiaSemana,W
000B   0??? 0???      01381         BANKSEL r0x1018
000D   00??           01382         MOVWF   r0x1018
000E   30??           01383         MOVLW   HIGH(_00208_DS_)
000F   1283 1303      01384         BANKSEL PCLATH
0011   008A           01385         MOVWF   PCLATH
0012   30??           01386         MOVLW   _00208_DS_
0013   0??? 0???      01387         BANKSEL r0x1018
0015   07??           01388         ADDWF   r0x1018,W
0016   1C03           01389         BTFSS   STATUS,0
0017   2???           01390         GOTO    _00001_DS_
0018   1283 1303      01391         BANKSEL PCLATH
001A   0A8A           01392         INCF    PCLATH,F
001B                  01393 _00001_DS_:
001B   0082           01394         MOVWF   PCL
001C                  01395 _00208_DS_:
001C   2???           01396         GOTO    _00190_DS_
001D   2???           01397         GOTO    _00191_DS_
001E   2???           01398         GOTO    _00192_DS_
001F   2???           01399         GOTO    _00193_DS_
0020   2???           01400         GOTO    _00194_DS_
0021   2???           01401         GOTO    _00195_DS_
0022   2???           01402         GOTO    _00196_DS_
gpasm-1.5.0 #1285 (Sep 12 2016) obj\Release\m   10-28-2017  12:33:54        PAGE 28


LOC    OBJECT CODE    LINE  SOURCE TEXT
  VALUE

0023                  01403 _00190_DS_:
                      01404 ;       .line   483; "main.c"   LCD_print("DOM");
0023   30??           01405         MOVLW   high (___str_0 + 0)
0024   0??? 0???      01406         BANKSEL r0x1019
0026   00??           01407         MOVWF   r0x1019
0027   30??           01408         MOVLW   (___str_0 + 0)
0028   00??           01409         MOVWF   r0x1018
0029   3080           01410         MOVLW   0x80
002A   00??           01411         MOVWF   r0x101A
002B   08??           01412         MOVF    r0x1018,W
002C   00??           01413         MOVWF   STK01
002D   08??           01414         MOVF    r0x1019,W
002E   00??           01415         MOVWF   STK00
002F   08??           01416         MOVF    r0x101A,W
0030   0??? 0???      01417         PAGESEL _LCD_print
0032   2???           01418         CALL    _LCD_print
0033   0??? 0???      01419         PAGESEL $
                      01420 ;       .line   484; "main.c"   break;
0035   2???           01421         GOTO    _00198_DS_
0036                  01422 _00191_DS_:
                      01423 ;       .line   486; "main.c"   LCD_print("LUN");
0036   30??           01424         MOVLW   high (___str_1 + 0)
0037   0??? 0???      01425         BANKSEL r0x1019
0039   00??           01426         MOVWF   r0x1019
003A   30??           01427         MOVLW   (___str_1 + 0)
003B   00??           01428         MOVWF   r0x1018
003C   3080           01429         MOVLW   0x80
003D   00??           01430         MOVWF   r0x101A
003E   08??           01431         MOVF    r0x1018,W
003F   00??           01432         MOVWF   STK01
0040   08??           01433         MOVF    r0x1019,W
0041   00??           01434         MOVWF   STK00
0042   08??           01435         MOVF    r0x101A,W
0043   0??? 0???      01436         PAGESEL _LCD_print
0045   2???           01437         CALL    _LCD_print
0046   0??? 0???      01438         PAGESEL $
                      01439 ;       .line   487; "main.c"   break;
0048   2???           01440         GOTO    _00198_DS_
0049                  01441 _00192_DS_:
                      01442 ;       .line   489; "main.c"   LCD_print("MAR");
0049   30??           01443         MOVLW   high (___str_2 + 0)
004A   0??? 0???      01444         BANKSEL r0x1019
004C   00??           01445         MOVWF   r0x1019
004D   30??           01446         MOVLW   (___str_2 + 0)
004E   00??           01447         MOVWF   r0x1018
004F   3080           01448         MOVLW   0x80
0050   00??           01449         MOVWF   r0x101A
0051   08??           01450         MOVF    r0x1018,W
0052   00??           01451         MOVWF   STK01
0053   08??           01452         MOVF    r0x1019,W
0054   00??           01453         MOVWF   STK00
0055   08??           01454         MOVF    r0x101A,W
0056   0??? 0???      01455         PAGESEL _LCD_print
gpasm-1.5.0 #1285 (Sep 12 2016) obj\Release\m   10-28-2017  12:33:54        PAGE 29


LOC    OBJECT CODE    LINE  SOURCE TEXT
  VALUE

0058   2???           01456         CALL    _LCD_print
0059   0??? 0???      01457         PAGESEL $
                      01458 ;       .line   490; "main.c"   break;
005B   2???           01459         GOTO    _00198_DS_
005C                  01460 _00193_DS_:
                      01461 ;       .line   492; "main.c"   LCD_print("MIE");
005C   30??           01462         MOVLW   high (___str_3 + 0)
005D   0??? 0???      01463         BANKSEL r0x1019
005F   00??           01464         MOVWF   r0x1019
0060   30??           01465         MOVLW   (___str_3 + 0)
0061   00??           01466         MOVWF   r0x1018
0062   3080           01467         MOVLW   0x80
0063   00??           01468         MOVWF   r0x101A
0064   08??           01469         MOVF    r0x1018,W
0065   00??           01470         MOVWF   STK01
0066   08??           01471         MOVF    r0x1019,W
0067   00??           01472         MOVWF   STK00
0068   08??           01473         MOVF    r0x101A,W
0069   0??? 0???      01474         PAGESEL _LCD_print
006B   2???           01475         CALL    _LCD_print
006C   0??? 0???      01476         PAGESEL $
                      01477 ;       .line   493; "main.c"   break;
006E   2???           01478         GOTO    _00198_DS_
006F                  01479 _00194_DS_:
                      01480 ;       .line   495; "main.c"   LCD_print("JUE");
006F   30??           01481         MOVLW   high (___str_4 + 0)
0070   0??? 0???      01482         BANKSEL r0x1019
0072   00??           01483         MOVWF   r0x1019
0073   30??           01484         MOVLW   (___str_4 + 0)
0074   00??           01485         MOVWF   r0x1018
0075   3080           01486         MOVLW   0x80
0076   00??           01487         MOVWF   r0x101A
0077   08??           01488         MOVF    r0x1018,W
0078   00??           01489         MOVWF   STK01
0079   08??           01490         MOVF    r0x1019,W
007A   00??           01491         MOVWF   STK00
007B   08??           01492         MOVF    r0x101A,W
007C   0??? 0???      01493         PAGESEL _LCD_print
007E   2???           01494         CALL    _LCD_print
007F   0??? 0???      01495         PAGESEL $
                      01496 ;       .line   496; "main.c"   break;
0081   2???           01497         GOTO    _00198_DS_
0082                  01498 _00195_DS_:
                      01499 ;       .line   498; "main.c"   LCD_print("VIE");
0082   30??           01500         MOVLW   high (___str_5 + 0)
0083   0??? 0???      01501         BANKSEL r0x1019
0085   00??           01502         MOVWF   r0x1019
0086   30??           01503         MOVLW   (___str_5 + 0)
0087   00??           01504         MOVWF   r0x1018
0088   3080           01505         MOVLW   0x80
0089   00??           01506         MOVWF   r0x101A
008A   08??           01507         MOVF    r0x1018,W
008B   00??           01508         MOVWF   STK01
gpasm-1.5.0 #1285 (Sep 12 2016) obj\Release\m   10-28-2017  12:33:54        PAGE 30


LOC    OBJECT CODE    LINE  SOURCE TEXT
  VALUE

008C   08??           01509         MOVF    r0x1019,W
008D   00??           01510         MOVWF   STK00
008E   08??           01511         MOVF    r0x101A,W
008F   0??? 0???      01512         PAGESEL _LCD_print
0091   2???           01513         CALL    _LCD_print
0092   0??? 0???      01514         PAGESEL $
                      01515 ;       .line   499; "main.c"   break;
0094   2???           01516         GOTO    _00198_DS_
0095                  01517 _00196_DS_:
                      01518 ;       .line   501; "main.c"   LCD_print("SAB");
0095   30??           01519         MOVLW   high (___str_6 + 0)
0096   0??? 0???      01520         BANKSEL r0x1019
0098   00??           01521         MOVWF   r0x1019
0099   30??           01522         MOVLW   (___str_6 + 0)
009A   00??           01523         MOVWF   r0x1018
009B   3080           01524         MOVLW   0x80
009C   00??           01525         MOVWF   r0x101A
009D   08??           01526         MOVF    r0x1018,W
009E   00??           01527         MOVWF   STK01
009F   08??           01528         MOVF    r0x1019,W
00A0   00??           01529         MOVWF   STK00
00A1   08??           01530         MOVF    r0x101A,W
00A2   0??? 0???      01531         PAGESEL _LCD_print
00A4   2???           01532         CALL    _LCD_print
00A5   0??? 0???      01533         PAGESEL $
00A7                  01534 _00198_DS_:
                      01535 ;       .line   503; "main.c"   }
00A7   0008           01536         RETURN  
                      01537 ; exit point of _LCDPrintDiaSemana
                      01538 
                      01539 ;***
                      01540 ;  pBlock Stats: dbName = C
                      01541 ;***
                      01542 ;has an exit
                      01543 ;functions called:
                      01544 ;   _I2C_start
                      01545 ;   _I2C_writeByte
                      01546 ;   _I2C_writeByte
                      01547 ;   _I2C_writeByte
                      01548 ;   _decimalToBCD
                      01549 ;   _I2C_writeByte
                      01550 ;   _decimalToBCD
                      01551 ;   _I2C_writeByte
                      01552 ;   _I2C_writeByte
                      01553 ;   _decimalToBCD
                      01554 ;   _I2C_writeByte
                      01555 ;   _decimalToBCD
                      01556 ;   _I2C_writeByte
                      01557 ;   _decimalToBCD
                      01558 ;   _I2C_writeByte
                      01559 ;   _I2C_stop
                      01560 ;   _I2C_start
                      01561 ;   _I2C_writeByte
gpasm-1.5.0 #1285 (Sep 12 2016) obj\Release\m   10-28-2017  12:33:54        PAGE 31


LOC    OBJECT CODE    LINE  SOURCE TEXT
  VALUE

                      01562 ;   _I2C_writeByte
                      01563 ;   _I2C_writeByte
                      01564 ;   _decimalToBCD
                      01565 ;   _I2C_writeByte
                      01566 ;   _decimalToBCD
                      01567 ;   _I2C_writeByte
                      01568 ;   _I2C_writeByte
                      01569 ;   _decimalToBCD
                      01570 ;   _I2C_writeByte
                      01571 ;   _decimalToBCD
                      01572 ;   _I2C_writeByte
                      01573 ;   _decimalToBCD
                      01574 ;   _I2C_writeByte
                      01575 ;   _I2C_stop
                      01576 ;1 compiler assigned register :
                      01577 ;   r0x100C
                      01578 ;; Starting pCode block
                      01579 S_main__DS1307_timeWrite        code
0000                  01580 _DS1307_timeWrite:
                      01581 ; 2 exit points
                      01582 ;       .line   457; "main.c"   I2C_start();          // Inicia comunicación I2C
0000   0??? 0???      01583         PAGESEL _I2C_start
0002   2???           01584         CALL    _I2C_start
0003   0??? 0???      01585         PAGESEL $
                      01586 ;       .line   458; "main.c"   I2C_writeByte(0xD0);  // Dirección I2C del DS1307.
0005   30D0           01587         MOVLW   0xd0
0006   0??? 0???      01588         PAGESEL _I2C_writeByte
0008   2???           01589         CALL    _I2C_writeByte
0009   0??? 0???      01590         PAGESEL $
                      01591 ;       .line   459; "main.c"   I2C_writeByte(0x00);  // Primera dirección a leer/escribir.
000B   3000           01592         MOVLW   0x00
000C   0??? 0???      01593         PAGESEL _I2C_writeByte
000E   2???           01594         CALL    _I2C_writeByte
000F   0??? 0???      01595         PAGESEL $
                      01596 ;       .line   460; "main.c"   I2C_writeByte(0);     // Siempre que se ajusta la fecha y hora los Segun
                            dos=0.
0011   3000           01597         MOVLW   0x00
0012   0??? 0???      01598         PAGESEL _I2C_writeByte
0014   2???           01599         CALL    _I2C_writeByte
0015   0??? 0???      01600         PAGESEL $
                      01601 ;       .line   461; "main.c"   I2C_writeByte(decimalToBCD(DS1307_Minuto));
0017   0??? 0???      01602         BANKSEL _DS1307_Minuto
0019   08??           01603         MOVF    _DS1307_Minuto,W
001A   0??? 0???      01604         PAGESEL _decimalToBCD
001C   2???           01605         CALL    _decimalToBCD
001D   0??? 0???      01606         PAGESEL $
001F   0??? 0???      01607         BANKSEL r0x100C
0021   00??           01608         MOVWF   r0x100C
0022   0??? 0???      01609         PAGESEL _I2C_writeByte
0024   2???           01610         CALL    _I2C_writeByte
0025   0??? 0???      01611         PAGESEL $
                      01612 ;       .line   462; "main.c"   I2C_writeByte(decimalToBCD(DS1307_Hora));
0027   0??? 0???      01613         BANKSEL _DS1307_Hora
gpasm-1.5.0 #1285 (Sep 12 2016) obj\Release\m   10-28-2017  12:33:54        PAGE 32


LOC    OBJECT CODE    LINE  SOURCE TEXT
  VALUE

0029   08??           01614         MOVF    _DS1307_Hora,W
002A   0??? 0???      01615         PAGESEL _decimalToBCD
002C   2???           01616         CALL    _decimalToBCD
002D   0??? 0???      01617         PAGESEL $
002F   0??? 0???      01618         BANKSEL r0x100C
0031   00??           01619         MOVWF   r0x100C
0032   0??? 0???      01620         PAGESEL _I2C_writeByte
0034   2???           01621         CALL    _I2C_writeByte
0035   0??? 0???      01622         PAGESEL $
                      01623 ;       .line   463; "main.c"   I2C_writeByte(DS1307_DiaSemana);  // Valor 1...7 (igual en decimal que e
                            n BCD)
0037   0??? 0???      01624         BANKSEL _DS1307_DiaSemana
0039   08??           01625         MOVF    _DS1307_DiaSemana,W
003A   0??? 0???      01626         PAGESEL _I2C_writeByte
003C   2???           01627         CALL    _I2C_writeByte
003D   0??? 0???      01628         PAGESEL $
                      01629 ;       .line   464; "main.c"   I2C_writeByte(decimalToBCD(DS1307_Dia));
003F   0??? 0???      01630         BANKSEL _DS1307_Dia
0041   08??           01631         MOVF    _DS1307_Dia,W
0042   0??? 0???      01632         PAGESEL _decimalToBCD
0044   2???           01633         CALL    _decimalToBCD
0045   0??? 0???      01634         PAGESEL $
0047   0??? 0???      01635         BANKSEL r0x100C
0049   00??           01636         MOVWF   r0x100C
004A   0??? 0???      01637         PAGESEL _I2C_writeByte
004C   2???           01638         CALL    _I2C_writeByte
004D   0??? 0???      01639         PAGESEL $
                      01640 ;       .line   465; "main.c"   I2C_writeByte(decimalToBCD(DS1307_Mes));
004F   0??? 0???      01641         BANKSEL _DS1307_Mes
0051   08??           01642         MOVF    _DS1307_Mes,W
0052   0??? 0???      01643         PAGESEL _decimalToBCD
0054   2???           01644         CALL    _decimalToBCD
0055   0??? 0???      01645         PAGESEL $
0057   0??? 0???      01646         BANKSEL r0x100C
0059   00??           01647         MOVWF   r0x100C
005A   0??? 0???      01648         PAGESEL _I2C_writeByte
005C   2???           01649         CALL    _I2C_writeByte
005D   0??? 0???      01650         PAGESEL $
                      01651 ;       .line   466; "main.c"   I2C_writeByte(decimalToBCD(DS1307_Ano));
005F   0??? 0???      01652         BANKSEL _DS1307_Ano
0061   08??           01653         MOVF    _DS1307_Ano,W
0062   0??? 0???      01654         PAGESEL _decimalToBCD
0064   2???           01655         CALL    _decimalToBCD
0065   0??? 0???      01656         PAGESEL $
0067   0??? 0???      01657         BANKSEL r0x100C
0069   00??           01658         MOVWF   r0x100C
006A   0??? 0???      01659         PAGESEL _I2C_writeByte
006C   2???           01660         CALL    _I2C_writeByte
006D   0??? 0???      01661         PAGESEL $
                      01662 ;       .line   467; "main.c"   I2C_stop();
006F   0??? 0???      01663         PAGESEL _I2C_stop
0071   2???           01664         CALL    _I2C_stop
0072   0??? 0???      01665         PAGESEL $
gpasm-1.5.0 #1285 (Sep 12 2016) obj\Release\m   10-28-2017  12:33:54        PAGE 33


LOC    OBJECT CODE    LINE  SOURCE TEXT
  VALUE

0074   0008           01666         RETURN  
                      01667 ; exit point of _DS1307_timeWrite
                      01668 
                      01669 ;***
                      01670 ;  pBlock Stats: dbName = C
                      01671 ;***
                      01672 ;has an exit
                      01673 ;functions called:
                      01674 ;   _I2C_start
                      01675 ;   _I2C_writeByte
                      01676 ;   _I2C_writeByte
                      01677 ;   _I2C_start
                      01678 ;   _I2C_writeByte
                      01679 ;   _I2C_readByte
                      01680 ;   _BCDToDecimal
                      01681 ;   _I2C_readByte
                      01682 ;   _BCDToDecimal
                      01683 ;   _I2C_readByte
                      01684 ;   _BCDToDecimal
                      01685 ;   _I2C_readByte
                      01686 ;   _I2C_readByte
                      01687 ;   _BCDToDecimal
                      01688 ;   _I2C_readByte
                      01689 ;   _BCDToDecimal
                      01690 ;   _I2C_readByte
                      01691 ;   _BCDToDecimal
                      01692 ;   _I2C_stop
                      01693 ;   _I2C_start
                      01694 ;   _I2C_writeByte
                      01695 ;   _I2C_writeByte
                      01696 ;   _I2C_start
                      01697 ;   _I2C_writeByte
                      01698 ;   _I2C_readByte
                      01699 ;   _BCDToDecimal
                      01700 ;   _I2C_readByte
                      01701 ;   _BCDToDecimal
                      01702 ;   _I2C_readByte
                      01703 ;   _BCDToDecimal
                      01704 ;   _I2C_readByte
                      01705 ;   _I2C_readByte
                      01706 ;   _BCDToDecimal
                      01707 ;   _I2C_readByte
                      01708 ;   _BCDToDecimal
                      01709 ;   _I2C_readByte
                      01710 ;   _BCDToDecimal
                      01711 ;   _I2C_stop
                      01712 ;1 compiler assigned register :
                      01713 ;   r0x100C
                      01714 ;; Starting pCode block
                      01715 S_main__DS1307_timeRead code
0000                  01716 _DS1307_timeRead:
                      01717 ; 2 exit points
                      01718 ;       .line   433; "main.c"   I2C_start();          // Inicia comunicación I2C.
gpasm-1.5.0 #1285 (Sep 12 2016) obj\Release\m   10-28-2017  12:33:54        PAGE 34


LOC    OBJECT CODE    LINE  SOURCE TEXT
  VALUE

0000   0??? 0???      01719         PAGESEL _I2C_start
0002   2???           01720         CALL    _I2C_start
0003   0??? 0???      01721         PAGESEL $
                      01722 ;       .line   434; "main.c"   I2C_writeByte(0xD0);  // Dirección I2C del DS1307.
0005   30D0           01723         MOVLW   0xd0
0006   0??? 0???      01724         PAGESEL _I2C_writeByte
0008   2???           01725         CALL    _I2C_writeByte
0009   0??? 0???      01726         PAGESEL $
                      01727 ;       .line   435; "main.c"   I2C_writeByte(0x00);  // Primera dirección a leer/escribir.
000B   3000           01728         MOVLW   0x00
000C   0??? 0???      01729         PAGESEL _I2C_writeByte
000E   2???           01730         CALL    _I2C_writeByte
000F   0??? 0???      01731         PAGESEL $
                      01732 ;       .line   436; "main.c"   I2C_start();          // Reinicia comunicación I2C.
0011   0??? 0???      01733         PAGESEL _I2C_start
0013   2???           01734         CALL    _I2C_start
0014   0??? 0???      01735         PAGESEL $
                      01736 ;       .line   437; "main.c"   I2C_writeByte(0xD1);  // DS1307 en Modo Escritura.
0016   30D1           01737         MOVLW   0xd1
0017   0??? 0???      01738         PAGESEL _I2C_writeByte
0019   2???           01739         CALL    _I2C_writeByte
001A   0??? 0???      01740         PAGESEL $
                      01741 ;       .line   438; "main.c"   DS1307_Segundo   = BCDToDecimal(I2C_readByte(true)); // ASK = 1
001C   3001           01742         MOVLW   0x01
001D   0??? 0???      01743         PAGESEL _I2C_readByte
001F   2???           01744         CALL    _I2C_readByte
0020   0??? 0???      01745         PAGESEL $
0022   0??? 0???      01746         BANKSEL r0x100C
0024   00??           01747         MOVWF   r0x100C
0025   0??? 0???      01748         PAGESEL _BCDToDecimal
0027   2???           01749         CALL    _BCDToDecimal
0028   0??? 0???      01750         PAGESEL $
002A   0??? 0???      01751         BANKSEL _DS1307_Segundo
002C   00??           01752         MOVWF   _DS1307_Segundo
                      01753 ;       .line   439; "main.c"   DS1307_Minuto    = BCDToDecimal(I2C_readByte(true));
002D   3001           01754         MOVLW   0x01
002E   0??? 0???      01755         PAGESEL _I2C_readByte
0030   2???           01756         CALL    _I2C_readByte
0031   0??? 0???      01757         PAGESEL $
0033   0??? 0???      01758         BANKSEL r0x100C
0035   00??           01759         MOVWF   r0x100C
0036   0??? 0???      01760         PAGESEL _BCDToDecimal
0038   2???           01761         CALL    _BCDToDecimal
0039   0??? 0???      01762         PAGESEL $
003B   0??? 0???      01763         BANKSEL _DS1307_Minuto
003D   00??           01764         MOVWF   _DS1307_Minuto
                      01765 ;       .line   440; "main.c"   DS1307_Hora      = BCDToDecimal(I2C_readByte(true));
003E   3001           01766         MOVLW   0x01
003F   0??? 0???      01767         PAGESEL _I2C_readByte
0041   2???           01768         CALL    _I2C_readByte
0042   0??? 0???      01769         PAGESEL $
0044   0??? 0???      01770         BANKSEL r0x100C
0046   00??           01771         MOVWF   r0x100C
gpasm-1.5.0 #1285 (Sep 12 2016) obj\Release\m   10-28-2017  12:33:54        PAGE 35


LOC    OBJECT CODE    LINE  SOURCE TEXT
  VALUE

0047   0??? 0???      01772         PAGESEL _BCDToDecimal
0049   2???           01773         CALL    _BCDToDecimal
004A   0??? 0???      01774         PAGESEL $
004C   0??? 0???      01775         BANKSEL _DS1307_Hora
004E   00??           01776         MOVWF   _DS1307_Hora
                      01777 ;       .line   441; "main.c"   DS1307_DiaSemana = I2C_readByte(true);  // Valor 1...7 (igual en decimal
                             que en BCD)
004F   3001           01778         MOVLW   0x01
0050   0??? 0???      01779         PAGESEL _I2C_readByte
0052   2???           01780         CALL    _I2C_readByte
0053   0??? 0???      01781         PAGESEL $
0055   0??? 0???      01782         BANKSEL _DS1307_DiaSemana
0057   00??           01783         MOVWF   _DS1307_DiaSemana
                      01784 ;       .line   442; "main.c"   DS1307_Dia       = BCDToDecimal(I2C_readByte(true));
0058   3001           01785         MOVLW   0x01
0059   0??? 0???      01786         PAGESEL _I2C_readByte
005B   2???           01787         CALL    _I2C_readByte
005C   0??? 0???      01788         PAGESEL $
005E   0??? 0???      01789         BANKSEL r0x100C
0060   00??           01790         MOVWF   r0x100C
0061   0??? 0???      01791         PAGESEL _BCDToDecimal
0063   2???           01792         CALL    _BCDToDecimal
0064   0??? 0???      01793         PAGESEL $
0066   0??? 0???      01794         BANKSEL _DS1307_Dia
0068   00??           01795         MOVWF   _DS1307_Dia
                      01796 ;       .line   443; "main.c"   DS1307_Mes       = BCDToDecimal(I2C_readByte(true));
0069   3001           01797         MOVLW   0x01
006A   0??? 0???      01798         PAGESEL _I2C_readByte
006C   2???           01799         CALL    _I2C_readByte
006D   0??? 0???      01800         PAGESEL $
006F   0??? 0???      01801         BANKSEL r0x100C
0071   00??           01802         MOVWF   r0x100C
0072   0??? 0???      01803         PAGESEL _BCDToDecimal
0074   2???           01804         CALL    _BCDToDecimal
0075   0??? 0???      01805         PAGESEL $
0077   0??? 0???      01806         BANKSEL _DS1307_Mes
0079   00??           01807         MOVWF   _DS1307_Mes
                      01808 ;       .line   444; "main.c"   DS1307_Ano       = BCDToDecimal(I2C_readByte(false)); // ASK = 0
007A   3000           01809         MOVLW   0x00
007B   0??? 0???      01810         PAGESEL _I2C_readByte
007D   2???           01811         CALL    _I2C_readByte
007E   0??? 0???      01812         PAGESEL $
0080   0??? 0???      01813         BANKSEL r0x100C
0082   00??           01814         MOVWF   r0x100C
0083   0??? 0???      01815         PAGESEL _BCDToDecimal
0085   2???           01816         CALL    _BCDToDecimal
0086   0??? 0???      01817         PAGESEL $
0088   0??? 0???      01818         BANKSEL _DS1307_Ano
008A   00??           01819         MOVWF   _DS1307_Ano
                      01820 ;       .line   446; "main.c"   I2C_stop();
008B   0??? 0???      01821         PAGESEL _I2C_stop
008D   2???           01822         CALL    _I2C_stop
008E   0??? 0???      01823         PAGESEL $
gpasm-1.5.0 #1285 (Sep 12 2016) obj\Release\m   10-28-2017  12:33:54        PAGE 36


LOC    OBJECT CODE    LINE  SOURCE TEXT
  VALUE

0090   0008           01824         RETURN  
                      01825 ; exit point of _DS1307_timeRead
                      01826 
                      01827 ;***
                      01828 ;  pBlock Stats: dbName = C
                      01829 ;***
                      01830 ;has an exit
                      01831 ;functions called:
                      01832 ;   __divuchar
                      01833 ;   __moduchar
                      01834 ;   __divuchar
                      01835 ;   __moduchar
                      01836 ;4 compiler assigned registers:
                      01837 ;   r0x1008
                      01838 ;   STK00
                      01839 ;   r0x1009
                      01840 ;   r0x100A
                      01841 ;; Starting pCode block
                      01842 S_main__decimalToBCD    code
0000                  01843 _decimalToBCD:
                      01844 ; 2 exit points
                      01845 ;       .line   416; "main.c"   uint8_t decimalToBCD (uint8_t decimalByte)
0000   0??? 0???      01846         BANKSEL r0x1008
0002   00??           01847         MOVWF   r0x1008
                      01848 ;       .line   419; "main.c"   a=((decimalByte / 10) << 4);
0003   300A           01849         MOVLW   0x0a
0004   00??           01850         MOVWF   STK00
0005   08??           01851         MOVF    r0x1008,W
0006   0??? 0???      01852         PAGESEL __divuchar
0008   2???           01853         CALL    __divuchar
0009   0??? 0???      01854         PAGESEL $
000B   0??? 0???      01855         BANKSEL r0x1009
000D   00??           01856         MOVWF   r0x1009
000E   0E??           01857         SWAPF   r0x1009,W
000F   39F0           01858         ANDLW   0xf0
0010   00??           01859         MOVWF   r0x100A
                      01860 ;       .line   420; "main.c"   b= (decimalByte % 10);
0011   300A           01861         MOVLW   0x0a
0012   00??           01862         MOVWF   STK00
0013   08??           01863         MOVF    r0x1008,W
0014   0??? 0???      01864         PAGESEL __moduchar
0016   2???           01865         CALL    __moduchar
0017   0??? 0???      01866         PAGESEL $
                      01867 ;       .line   421; "main.c"   bcd=a|b;
0019   0??? 0???      01868         BANKSEL r0x1009
001B   00??           01869         MOVWF   r0x1009
001C   04??           01870         IORWF   r0x100A,W
                      01871 ;       .line   422; "main.c"   return bcd;
001D   00??           01872         MOVWF   r0x1008
001E   0008           01873         RETURN  
                      01874 ; exit point of _decimalToBCD
                      01875 
                      01876 ;***
gpasm-1.5.0 #1285 (Sep 12 2016) obj\Release\m   10-28-2017  12:33:54        PAGE 37


LOC    OBJECT CODE    LINE  SOURCE TEXT
  VALUE

                      01877 ;  pBlock Stats: dbName = C
                      01878 ;***
                      01879 ;has an exit
                      01880 ;functions called:
                      01881 ;   __mulchar
                      01882 ;   __mulchar
                      01883 ;4 compiler assigned registers:
                      01884 ;   r0x1008
                      01885 ;   r0x1009
                      01886 ;   r0x100A
                      01887 ;   STK00
                      01888 ;; Starting pCode block
                      01889 S_main__BCDToDecimal    code
0000                  01890 _BCDToDecimal:
                      01891 ; 2 exit points
                      01892 ;       .line   400; "main.c"   uint8_t BCDToDecimal(uint8_t bcdByte)
0000   0??? 0???      01893         BANKSEL r0x1008
0002   00??           01894         MOVWF   r0x1008
                      01895 ;       .line   403; "main.c"   a=(((bcdByte & 0xF0) >> 4) * 10);
0003   30F0           01896         MOVLW   0xf0
0004   05??           01897         ANDWF   r0x1008,W
0005   00??           01898         MOVWF   r0x1009
0006   0E??           01899         SWAPF   r0x1009,W
0007   390F           01900         ANDLW   0x0f
0008   00??           01901         MOVWF   r0x100A
0009   300A           01902         MOVLW   0x0a
000A   00??           01903         MOVWF   STK00
000B   08??           01904         MOVF    r0x100A,W
000C   0??? 0???      01905         PAGESEL __mulchar
000E   2???           01906         CALL    __mulchar
000F   0??? 0???      01907         PAGESEL $
0011   0??? 0???      01908         BANKSEL r0x1009
0013   00??           01909         MOVWF   r0x1009
                      01910 ;       .line   404; "main.c"   b=(bcdByte & 0x0F);
0014   300F           01911         MOVLW   0x0f
0015   05??           01912         ANDWF   r0x1008,F
                      01913 ;       .line   405; "main.c"   dec=a+b;
0016   08??           01914         MOVF    r0x1008,W
0017   07??           01915         ADDWF   r0x1009,F
                      01916 ;       .line   406; "main.c"   return dec;
0018   08??           01917         MOVF    r0x1009,W
0019   0008           01918         RETURN  
                      01919 ; exit point of _BCDToDecimal
                      01920 
                      01921 ;***
                      01922 ;  pBlock Stats: dbName = C
                      01923 ;***
                      01924 ;has an exit
                      01925 ;3 compiler assigned registers:
                      01926 ;   r0x1008
                      01927 ;   r0x1009
                      01928 ;   r0x100A
                      01929 ;; Starting pCode block
gpasm-1.5.0 #1285 (Sep 12 2016) obj\Release\m   10-28-2017  12:33:54        PAGE 38


LOC    OBJECT CODE    LINE  SOURCE TEXT
  VALUE

                      01930 S_main__I2C_readByte    code
0000                  01931 _I2C_readByte:
                      01932 ; 2 exit points
                      01933 ;       .line   372; "main.c"   uint8_t I2C_readByte(bool ACKBit)   // Receive data from I2C
0000   0??? 0???      01934         BANKSEL r0x1008
0002   00??           01935         MOVWF   r0x1008
                      01936 ;       .line   375; "main.c"   uint8_t dato=0;
0003   01??           01937         CLRF    r0x1009
                      01938 ;       .line   377; "main.c"   SDA_INPUT;
0004   0??? 0???      01939         BANKSEL _TRISBbits
0006   14??           01940         BSF     _TRISBbits,0
                      01941 ;       .line   378; "main.c"   for(i=0; i<8; i++)
0007   0??? 0???      01942         BANKSEL r0x100A
0009   01??           01943         CLRF    r0x100A
000A                  01944 _00169_DS_:
                      01945 ;       .line   380; "main.c"   SCL_HIGH;
000A   0??? 0???      01946         BANKSEL _PORTBbits
000C   14??           01947         BSF     _PORTBbits,1
                      01948 ;       .line   381; "main.c"   dato<<=1;
000D   1003           01949         BCF     STATUS,0
                      01950 ;       .line   382; "main.c"   if(SDA) dato|=1;
000E   0??? 0???      01951         BANKSEL r0x1009
0010   0D??           01952         RLF     r0x1009,F
                      01953 ;       .line   383; "main.c"   SCL_LOW;
0011   0??? 0???      01954         BANKSEL _PORTBbits
0013   1C??           01955         BTFSS   _PORTBbits,0
0014   2???           01956         GOTO    _00002_DS_
0015   0??? 0???      01957         BANKSEL r0x1009
0017   14??           01958         BSF     r0x1009,0
0018                  01959 _00002_DS_:
0018   0??? 0???      01960         BANKSEL _PORTBbits
001A   10??           01961         BCF     _PORTBbits,1
                      01962 ;       .line   378; "main.c"   for(i=0; i<8; i++)
001B   0??? 0???      01963         BANKSEL r0x100A
001D   0A??           01964         INCF    r0x100A,F
                      01965 ;;unsigned compare: left < lit(0x8=8), size=1
001E   3008           01966         MOVLW   0x08
001F   02??           01967         SUBWF   r0x100A,W
0020   1C03           01968         BTFSS   STATUS,0
0021   2???           01969         GOTO    _00169_DS_
                      01970 ;;genSkipc:3257: created from rifx:00000000047658D0
                      01971 ;       .line   386; "main.c"   SDA_OUTPUT;
0022   0??? 0???      01972         BANKSEL _TRISBbits
0024   10??           01973         BCF     _TRISBbits,0
                      01974 ;       .line   387; "main.c"   SDA = !ACKBit;
0025   0??? 0???      01975         BANKSEL r0x1008
0027   08??           01976         MOVF    r0x1008,W
0028   3000           01977         MOVLW   0x00
0029   1903           01978         BTFSC   STATUS,2
002A   3001           01979         MOVLW   0x01
002B   00??           01980         MOVWF   r0x100A
002C   00??           01981         MOVWF   r0x1008
002D   0C??           01982         RRF     r0x1008,W
gpasm-1.5.0 #1285 (Sep 12 2016) obj\Release\m   10-28-2017  12:33:54        PAGE 39


LOC    OBJECT CODE    LINE  SOURCE TEXT
  VALUE

002E   1803           01983         BTFSC   STATUS,0
002F   2???           01984         GOTO    _00003_DS_
0030   0??? 0???      01985         BANKSEL _PORTBbits
0032   10??           01986         BCF     _PORTBbits,0
0033                  01987 _00003_DS_:
0033   1C03           01988         BTFSS   STATUS,0
0034   2???           01989         GOTO    _00004_DS_
0035   0??? 0???      01990         BANKSEL _PORTBbits
0037   14??           01991         BSF     _PORTBbits,0
0038                  01992 _00004_DS_:
                      01993 ;       .line   388; "main.c"   SCL_HIGH;
0038   0??? 0???      01994         BANKSEL _PORTBbits
003A   14??           01995         BSF     _PORTBbits,1
                      01996 ;       .line   389; "main.c"   SCL_LOW;
003B   10??           01997         BCF     _PORTBbits,1
                      01998 ;       .line   390; "main.c"   return dato;
003C   0??? 0???      01999         BANKSEL r0x1009
003E   08??           02000         MOVF    r0x1009,W
003F   0008           02001         RETURN  
                      02002 ; exit point of _I2C_readByte
                      02003 
                      02004 ;***
                      02005 ;  pBlock Stats: dbName = C
                      02006 ;***
                      02007 ;has an exit
                      02008 ;4 compiler assigned registers:
                      02009 ;   r0x1008
                      02010 ;   r0x1009
                      02011 ;   r0x100A
                      02012 ;   r0x100B
                      02013 ;; Starting pCode block
                      02014 S_main__I2C_writeByte   code
0000                  02015 _I2C_writeByte:
                      02016 ; 2 exit points
                      02017 ;       .line   351; "main.c"   bool I2C_writeByte(uint8_t dato)     // Send data to I2C
0000   0??? 0???      02018         BANKSEL r0x1008
0002   00??           02019         MOVWF   r0x1008
                      02020 ;       .line   356; "main.c"   for(i=0; i<8; i++)
0003   01??           02021         CLRF    r0x1009
0004                  02022 _00161_DS_:
                      02023 ;       .line   358; "main.c"   SDA = (dato & 0x80);    // SDA = bit de más peso del valor dato.
0004   0??? 0???      02024         BANKSEL r0x1008
0006   08??           02025         MOVF    r0x1008,W
0007   3980           02026         ANDLW   0x80
0008   1D03           02027         BTFSS   STATUS,2
0009   3001           02028         MOVLW   0x01
                      02029 ;;1     MOVWF   r0x100A
000A   00??           02030         MOVWF   r0x100B
000B   0C??           02031         RRF     r0x100B,W
000C   1803           02032         BTFSC   STATUS,0
000D   2???           02033         GOTO    _00005_DS_
000E   0??? 0???      02034         BANKSEL _PORTBbits
0010   10??           02035         BCF     _PORTBbits,0
gpasm-1.5.0 #1285 (Sep 12 2016) obj\Release\m   10-28-2017  12:33:54        PAGE 40


LOC    OBJECT CODE    LINE  SOURCE TEXT
  VALUE

0011                  02036 _00005_DS_:
0011   1C03           02037         BTFSS   STATUS,0
0012   2???           02038         GOTO    _00006_DS_
0013   0??? 0???      02039         BANKSEL _PORTBbits
0015   14??           02040         BSF     _PORTBbits,0
0016                  02041 _00006_DS_:
                      02042 ;       .line   359; "main.c"   SCL_HIGH;
0016   0??? 0???      02043         BANKSEL _PORTBbits
0018   14??           02044         BSF     _PORTBbits,1
                      02045 ;       .line   360; "main.c"   dato<<=1;
0019   1003           02046         BCF     STATUS,0
001A   0??? 0???      02047         BANKSEL r0x1008
001C   0D??           02048         RLF     r0x1008,F
                      02049 ;       .line   361; "main.c"   SCL_LOW;
001D   0??? 0???      02050         BANKSEL _PORTBbits
001F   10??           02051         BCF     _PORTBbits,1
                      02052 ;       .line   356; "main.c"   for(i=0; i<8; i++)
0020   0??? 0???      02053         BANKSEL r0x1009
0022   0A??           02054         INCF    r0x1009,F
                      02055 ;;unsigned compare: left < lit(0x8=8), size=1
0023   3008           02056         MOVLW   0x08
0024   02??           02057         SUBWF   r0x1009,W
0025   1C03           02058         BTFSS   STATUS,0
0026   2???           02059         GOTO    _00161_DS_
                      02060 ;;genSkipc:3257: created from rifx:00000000047658D0
                      02061 ;       .line   364; "main.c"   SDA_INPUT;
0027   0??? 0???      02062         BANKSEL _TRISBbits
0029   14??           02063         BSF     _TRISBbits,0
                      02064 ;       .line   365; "main.c"   SCL_HIGH;
002A   0??? 0???      02065         BANKSEL _PORTBbits
002C   14??           02066         BSF     _PORTBbits,1
                      02067 ;       .line   366; "main.c"   ACKbit = SDA;
002D   0??? 0???      02068         BANKSEL r0x1008
002F   01??           02069         CLRF    r0x1008
0030   0??? 0???      02070         BANKSEL _PORTBbits
0032   1C??           02071         BTFSS   _PORTBbits,0
0033   2???           02072         GOTO    _00007_DS_
0034   0??? 0???      02073         BANKSEL r0x1008
0036   0A??           02074         INCF    r0x1008,F
0037                  02075 _00007_DS_:
0037   0??? 0???      02076         BANKSEL r0x1008
0039   08??           02077         MOVF    r0x1008,W
003A   1903           02078         BTFSC   STATUS,2
003B   3001           02079         MOVLW   0x01
003C   00??           02080         MOVWF   r0x1009
                      02081 ;       .line   367; "main.c"   SCL_LOW;
003D   0??? 0???      02082         BANKSEL _PORTBbits
003F   10??           02083         BCF     _PORTBbits,1
                      02084 ;       .line   368; "main.c"   SDA_OUTPUT;
0040   0??? 0???      02085         BANKSEL _TRISBbits
0042   10??           02086         BCF     _TRISBbits,0
                      02087 ;       .line   369; "main.c"   SDA_LOW;
0043   0??? 0???      02088         BANKSEL _PORTBbits
gpasm-1.5.0 #1285 (Sep 12 2016) obj\Release\m   10-28-2017  12:33:54        PAGE 41


LOC    OBJECT CODE    LINE  SOURCE TEXT
  VALUE

0045   10??           02089         BCF     _PORTBbits,0
                      02090 ;       .line   370; "main.c"   return ACKbit;
0046   0??? 0???      02091         BANKSEL r0x1009
0048   08??           02092         MOVF    r0x1009,W
0049   0008           02093         RETURN  
                      02094 ; exit point of _I2C_writeByte
                      02095 
                      02096 ;***
                      02097 ;  pBlock Stats: dbName = C
                      02098 ;***
                      02099 ;has an exit
                      02100 ;; Starting pCode block
                      02101 S_main__I2C_stop        code
0000                  02102 _I2C_stop:
                      02103 ; 2 exit points
                      02104 ;       .line   347; "main.c"   SDA_LOW;
0000   0??? 0???      02105         BANKSEL _PORTBbits
0002   10??           02106         BCF     _PORTBbits,0
                      02107 ;       .line   348; "main.c"   SCL_HIGH;            // STOP function for communicate I2C
0003   14??           02108         BSF     _PORTBbits,1
                      02109 ;       .line   349; "main.c"   SDA_HIGH;
0004   14??           02110         BSF     _PORTBbits,0
0005   0008           02111         RETURN  
                      02112 ; exit point of _I2C_stop
                      02113 
                      02114 ;***
                      02115 ;  pBlock Stats: dbName = C
                      02116 ;***
                      02117 ;has an exit
                      02118 ;; Starting pCode block
                      02119 S_main__I2C_start       code
0000                  02120 _I2C_start:
                      02121 ; 2 exit points
                      02122 ;       .line   338; "main.c"   SDA_HIGH;
0000   0??? 0???      02123         BANKSEL _PORTBbits
0002   14??           02124         BSF     _PORTBbits,0
                      02125 ;       .line   339; "main.c"   SCL_HIGH;
0003   14??           02126         BSF     _PORTBbits,1
                      02127 ;       .line   340; "main.c"   SCL_OUTPUT;    // Configura pines I2C como Salidas.
0004   0??? 0???      02128         BANKSEL _TRISBbits
0006   10??           02129         BCF     _TRISBbits,1
                      02130 ;       .line   341; "main.c"   SDA_OUTPUT;
0007   10??           02131         BCF     _TRISBbits,0
                      02132 ;       .line   342; "main.c"   SDA_LOW;             // START function for communicate I2C
0008   0??? 0???      02133         BANKSEL _PORTBbits
000A   10??           02134         BCF     _PORTBbits,0
                      02135 ;       .line   343; "main.c"   SCL_LOW;
000B   10??           02136         BCF     _PORTBbits,1
000C   0008           02137         RETURN  
                      02138 ; exit point of _I2C_start
                      02139 
                      02140 ;***
                      02141 ;  pBlock Stats: dbName = C
gpasm-1.5.0 #1285 (Sep 12 2016) obj\Release\m   10-28-2017  12:33:54        PAGE 42


LOC    OBJECT CODE    LINE  SOURCE TEXT
  VALUE

                      02142 ;***
                      02143 ;has an exit
                      02144 ;functions called:
                      02145 ;   _delay_ms
                      02146 ;   _delay_ms
                      02147 ;   _LCD_send4Bits
                      02148 ;   _delay_ms
                      02149 ;   _LCD_send4Bits
                      02150 ;   _delay_ms
                      02151 ;   _LCD_send4Bits
                      02152 ;   _LCD_send4Bits
                      02153 ;   _LCD_command
                      02154 ;   _LCD_command
                      02155 ;   _LCD_command
                      02156 ;   _LCD_command
                      02157 ;   _LCD_command
                      02158 ;   _delay_ms
                      02159 ;   _delay_ms
                      02160 ;   _LCD_send4Bits
                      02161 ;   _delay_ms
                      02162 ;   _LCD_send4Bits
                      02163 ;   _delay_ms
                      02164 ;   _LCD_send4Bits
                      02165 ;   _LCD_send4Bits
                      02166 ;   _LCD_command
                      02167 ;   _LCD_command
                      02168 ;   _LCD_command
                      02169 ;   _LCD_command
                      02170 ;   _LCD_command
                      02171 ;1 compiler assigned register :
                      02172 ;   STK00
                      02173 ;; Starting pCode block
                      02174 S_main__LCD_init        code
0000                  02175 _LCD_init:
                      02176 ; 2 exit points
                      02177 ;       .line   301; "main.c"   LCD_DATA_4_DIR = OUTPUT_PIN;   // Pines iniciados como Salidas.
0000   0??? 0???      02178         BANKSEL _TRISBbits
0002   12??           02179         BCF     _TRISBbits,4
                      02180 ;       .line   302; "main.c"   LCD_DATA_5_DIR = OUTPUT_PIN;
0003   12??           02181         BCF     _TRISBbits,5
                      02182 ;       .line   303; "main.c"   LCD_DATA_6_DIR = OUTPUT_PIN;
0004   13??           02183         BCF     _TRISBbits,6
                      02184 ;       .line   304; "main.c"   LCD_DATA_7_DIR = OUTPUT_PIN;
0005   13??           02185         BCF     _TRISBbits,7
                      02186 ;       .line   305; "main.c"   LCD_RS_DIR     = OUTPUT_PIN;
0006   11??           02187         BCF     _TRISBbits,2
                      02188 ;       .line   306; "main.c"   LCD_EN_DIR     = OUTPUT_PIN;
0007   11??           02189         BCF     _TRISBbits,3
                      02190 ;       .line   308; "main.c"   delay_ms(200);   // Espera para asegurar tensión estable tras inicio.
0008   30C8           02191         MOVLW   0xc8
0009   00??           02192         MOVWF   STK00
000A   3000           02193         MOVLW   0x00
000B   0??? 0???      02194         PAGESEL _delay_ms
gpasm-1.5.0 #1285 (Sep 12 2016) obj\Release\m   10-28-2017  12:33:54        PAGE 43


LOC    OBJECT CODE    LINE  SOURCE TEXT
  VALUE

000D   2???           02195         CALL    _delay_ms
000E   0??? 0???      02196         PAGESEL $
                      02197 ;       .line   309; "main.c"   LCD_RS = LOW_ST;
0010   0??? 0???      02198         BANKSEL _PORTBbits
0012   11??           02199         BCF     _PORTBbits,2
                      02200 ;       .line   310; "main.c"   LCD_EN = LOW_ST;
0013   11??           02201         BCF     _PORTBbits,3
                      02202 ;       .line   315; "main.c"   delay_ms(30);    // Espera >= 15 ms
0014   301E           02203         MOVLW   0x1e
0015   00??           02204         MOVWF   STK00
0016   3000           02205         MOVLW   0x00
0017   0??? 0???      02206         PAGESEL _delay_ms
0019   2???           02207         CALL    _delay_ms
001A   0??? 0???      02208         PAGESEL $
                      02209 ;       .line   317; "main.c"   LCD_send4Bits(0b00110000);
001C   3030           02210         MOVLW   0x30
001D   0??? 0???      02211         PAGESEL _LCD_send4Bits
001F   2???           02212         CALL    _LCD_send4Bits
0020   0??? 0???      02213         PAGESEL $
                      02214 ;       .line   318; "main.c"   delay_ms(5);    // Espera >= 4.1 ms
0022   3005           02215         MOVLW   0x05
0023   00??           02216         MOVWF   STK00
0024   3000           02217         MOVLW   0x00
0025   0??? 0???      02218         PAGESEL _delay_ms
0027   2???           02219         CALL    _delay_ms
0028   0??? 0???      02220         PAGESEL $
                      02221 ;       .line   319; "main.c"   LCD_send4Bits(0b00110000);
002A   3030           02222         MOVLW   0x30
002B   0??? 0???      02223         PAGESEL _LCD_send4Bits
002D   2???           02224         CALL    _LCD_send4Bits
002E   0??? 0???      02225         PAGESEL $
                      02226 ;       .line   320; "main.c"   delay_ms(1);    // Espera >= 100 us
0030   3001           02227         MOVLW   0x01
0031   00??           02228         MOVWF   STK00
0032   3000           02229         MOVLW   0x00
0033   0??? 0???      02230         PAGESEL _delay_ms
0035   2???           02231         CALL    _delay_ms
0036   0??? 0???      02232         PAGESEL $
                      02233 ;       .line   321; "main.c"   LCD_send4Bits(0b00110000);
0038   3030           02234         MOVLW   0x30
0039   0??? 0???      02235         PAGESEL _LCD_send4Bits
003B   2???           02236         CALL    _LCD_send4Bits
003C   0??? 0???      02237         PAGESEL $
                      02238 ;       .line   322; "main.c"   LCD_send4Bits(0b00100000);
003E   3020           02239         MOVLW   0x20
003F   0??? 0???      02240         PAGESEL _LCD_send4Bits
0041   2???           02241         CALL    _LCD_send4Bits
0042   0??? 0???      02242         PAGESEL $
                      02243 ;       .line   323; "main.c"   LCD_command(LCD_CMD_FUNCTION_SET + LCD_CMD_4BIT_INTERFACE + LCD_CMD_2LIN
                            ES + LCD_CMD_F_FONT_5_8);
0044   3028           02244         MOVLW   0x28
0045   0??? 0???      02245         PAGESEL _LCD_command
0047   2???           02246         CALL    _LCD_command
gpasm-1.5.0 #1285 (Sep 12 2016) obj\Release\m   10-28-2017  12:33:54        PAGE 44


LOC    OBJECT CODE    LINE  SOURCE TEXT
  VALUE

0048   0??? 0???      02247         PAGESEL $
                      02248 ;       .line   327; "main.c"   LCD_OFF;
004A   3008           02249         MOVLW   0x08
004B   0??? 0???      02250         PAGESEL _LCD_command
004D   2???           02251         CALL    _LCD_command
004E   0??? 0???      02252         PAGESEL $
                      02253 ;       .line   328; "main.c"   LCD_command(LCD_CMD_CHARACTER_ENTRY_MODE + LCD_CMD_INCREMENT + LCD_CMD_D
                            ISPLAY_SHIFT_OFF);
0050   3006           02254         MOVLW   0x06
0051   0??? 0???      02255         PAGESEL _LCD_command
0053   2???           02256         CALL    _LCD_command
0054   0??? 0???      02257         PAGESEL $
                      02258 ;       .line   329; "main.c"   LCD_ON;
0056   300C           02259         MOVLW   0x0c
0057   0??? 0???      02260         PAGESEL _LCD_command
0059   2???           02261         CALL    _LCD_command
005A   0??? 0???      02262         PAGESEL $
                      02263 ;       .line   330; "main.c"   LCD_CLEAR;
005C   3001           02264         MOVLW   0x01
005D   0??? 0???      02265         PAGESEL _LCD_command
005F   2???           02266         CALL    _LCD_command
0060   0??? 0???      02267         PAGESEL $
0062   0008           02268         RETURN  
                      02269 ; exit point of _LCD_init
                      02270 
                      02271 ;***
                      02272 ;  pBlock Stats: dbName = C
                      02273 ;***
                      02274 ;has an exit
                      02275 ;functions called:
                      02276 ;   __gptrget1
                      02277 ;   _LCD_putChar
                      02278 ;   __gptrget1
                      02279 ;   _LCD_putChar
                      02280 ;6 compiler assigned registers:
                      02281 ;   r0x1014
                      02282 ;   STK00
                      02283 ;   r0x1015
                      02284 ;   STK01
                      02285 ;   r0x1016
                      02286 ;   r0x1017
                      02287 ;; Starting pCode block
                      02288 S_main__LCD_print       code
0000                  02289 _LCD_print:
                      02290 ; 2 exit points
                      02291 ;       .line   291; "main.c"   void LCD_print(uint8_t *str)
0000   0??? 0???      02292         BANKSEL r0x1014
0002   00??           02293         MOVWF   r0x1014
0003   08??           02294         MOVF    STK00,W
0004   00??           02295         MOVWF   r0x1015
0005   08??           02296         MOVF    STK01,W
0006   00??           02297         MOVWF   r0x1016
0007                  02298 _00140_DS_:
gpasm-1.5.0 #1285 (Sep 12 2016) obj\Release\m   10-28-2017  12:33:54        PAGE 45


LOC    OBJECT CODE    LINE  SOURCE TEXT
  VALUE

                      02299 ;       .line   293; "main.c"   while(*str)
0007   0??? 0???      02300         BANKSEL r0x1016
0009   08??           02301         MOVF    r0x1016,W
000A   00??           02302         MOVWF   STK01
000B   08??           02303         MOVF    r0x1015,W
000C   00??           02304         MOVWF   STK00
000D   08??           02305         MOVF    r0x1014,W
000E   0??? 0???      02306         PAGESEL __gptrget1
0010   2???           02307         CALL    __gptrget1
0011   0??? 0???      02308         PAGESEL $
0013   0??? 0???      02309         BANKSEL r0x1017
0015   00??           02310         MOVWF   r0x1017
0016   08??           02311         MOVF    r0x1017,W
0017   1903           02312         BTFSC   STATUS,2
0018   2???           02313         GOTO    _00143_DS_
                      02314 ;       .line   295; "main.c"   LCD_putChar(*str);
0019   08??           02315         MOVF    r0x1017,W
001A   0??? 0???      02316         PAGESEL _LCD_putChar
001C   2???           02317         CALL    _LCD_putChar
001D   0??? 0???      02318         PAGESEL $
                      02319 ;       .line   296; "main.c"   str++;
001F   0??? 0???      02320         BANKSEL r0x1016
0021   0A??           02321         INCF    r0x1016,F
0022   1903           02322         BTFSC   STATUS,2
0023   0A??           02323         INCF    r0x1015,F
0024   1903           02324         BTFSC   STATUS,2
0025   0A??           02325         INCF    r0x1014,F
0026   2???           02326         GOTO    _00140_DS_
0027                  02327 _00143_DS_:
0027   0008           02328         RETURN  
                      02329 ; exit point of _LCD_print
                      02330 
                      02331 ;***
                      02332 ;  pBlock Stats: dbName = C
                      02333 ;***
                      02334 ;has an exit
                      02335 ;functions called:
                      02336 ;   _LCD_command
                      02337 ;   _LCD_command
                      02338 ;   _LCD_command
                      02339 ;   _LCD_command
                      02340 ;3 compiler assigned registers:
                      02341 ;   r0x1014
                      02342 ;   STK00
                      02343 ;   r0x1015
                      02344 ;; Starting pCode block
                      02345 S_main__LCD_gotoXY      code
0000                  02346 _LCD_gotoXY:
                      02347 ; 2 exit points
                      02348 ;       .line   284; "main.c"   void LCD_gotoXY(uint8_t columna, uint8_t fila)
0000   0??? 0???      02349         BANKSEL r0x1014
0002   00??           02350         MOVWF   r0x1014
0003   08??           02351         MOVF    STK00,W
gpasm-1.5.0 #1285 (Sep 12 2016) obj\Release\m   10-28-2017  12:33:54        PAGE 46


LOC    OBJECT CODE    LINE  SOURCE TEXT
  VALUE

0004   00??           02352         MOVWF   r0x1015
                      02353 ;       .line   286; "main.c"   if(fila == 0)
0005   08??           02354         MOVF    r0x1015,W
0006   1D03           02355         BTFSS   STATUS,2
0007   2???           02356         GOTO    _00133_DS_
                      02357 ;       .line   287; "main.c"   LCD_command(LCD_CMD_SET_DISPLAY_ADDRESS + columna + LCD_CMD_ROW_0);
0008   3080           02358         MOVLW   0x80
0009   07??           02359         ADDWF   r0x1014,W
000A   00??           02360         MOVWF   r0x1015
000B   0??? 0???      02361         PAGESEL _LCD_command
000D   2???           02362         CALL    _LCD_command
000E   0??? 0???      02363         PAGESEL $
0010   2???           02364         GOTO    _00135_DS_
0011                  02365 _00133_DS_:
                      02366 ;       .line   289; "main.c"   LCD_command(LCD_CMD_SET_DISPLAY_ADDRESS + columna + LCD_CMD_ROW_1);
0011   30C0           02367         MOVLW   0xc0
0012   0??? 0???      02368         BANKSEL r0x1014
0014   07??           02369         ADDWF   r0x1014,F
0015   08??           02370         MOVF    r0x1014,W
0016   0??? 0???      02371         PAGESEL _LCD_command
0018   2???           02372         CALL    _LCD_command
0019   0??? 0???      02373         PAGESEL $
001B                  02374 _00135_DS_:
001B   0008           02375         RETURN  
                      02376 ; exit point of _LCD_gotoXY
                      02377 
                      02378 ;***
                      02379 ;  pBlock Stats: dbName = C
                      02380 ;***
                      02381 ;has an exit
                      02382 ;functions called:
                      02383 ;   _LCD_send
                      02384 ;   _LCD_send
                      02385 ;1 compiler assigned register :
                      02386 ;   r0x1013
                      02387 ;; Starting pCode block
                      02388 S_main__LCD_putChar     code
0000                  02389 _LCD_putChar:
                      02390 ; 2 exit points
                      02391 ;       .line   279; "main.c"   void LCD_putChar(uint8_t chr)
0000   0??? 0???      02392         BANKSEL r0x1013
0002   00??           02393         MOVWF   r0x1013
                      02394 ;       .line   281; "main.c"   LCD_RS = LCD_CharMode;
0003   0??? 0???      02395         BANKSEL _PORTBbits
0005   15??           02396         BSF     _PORTBbits,2
                      02397 ;       .line   282; "main.c"   LCD_send(chr);
0006   0??? 0???      02398         BANKSEL r0x1013
0008   08??           02399         MOVF    r0x1013,W
0009   0??? 0???      02400         PAGESEL _LCD_send
000B   2???           02401         CALL    _LCD_send
000C   0??? 0???      02402         PAGESEL $
000E   0008           02403         RETURN  
                      02404 ; exit point of _LCD_putChar
gpasm-1.5.0 #1285 (Sep 12 2016) obj\Release\m   10-28-2017  12:33:54        PAGE 47


LOC    OBJECT CODE    LINE  SOURCE TEXT
  VALUE

                      02405 
                      02406 ;***
                      02407 ;  pBlock Stats: dbName = C
                      02408 ;***
                      02409 ;has an exit
                      02410 ;functions called:
                      02411 ;   _LCD_send
                      02412 ;   _LCD_send
                      02413 ;1 compiler assigned register :
                      02414 ;   r0x1013
                      02415 ;; Starting pCode block
                      02416 S_main__LCD_command     code
0000                  02417 _LCD_command:
                      02418 ; 2 exit points
                      02419 ;       .line   274; "main.c"   void LCD_command(uint8_t comm)
0000   0??? 0???      02420         BANKSEL r0x1013
0002   00??           02421         MOVWF   r0x1013
                      02422 ;       .line   276; "main.c"   LCD_RS = LCD_CmdMode;
0003   0??? 0???      02423         BANKSEL _PORTBbits
0005   11??           02424         BCF     _PORTBbits,2
                      02425 ;       .line   277; "main.c"   LCD_send(comm);
0006   0??? 0???      02426         BANKSEL r0x1013
0008   08??           02427         MOVF    r0x1013,W
0009   0??? 0???      02428         PAGESEL _LCD_send
000B   2???           02429         CALL    _LCD_send
000C   0??? 0???      02430         PAGESEL $
000E   0008           02431         RETURN  
                      02432 ; exit point of _LCD_command
                      02433 
                      02434 ;***
                      02435 ;  pBlock Stats: dbName = C
                      02436 ;***
                      02437 ;has an exit
                      02438 ;functions called:
                      02439 ;   _LCD_send4Bits
                      02440 ;   _LCD_send4Bits
                      02441 ;   _LCD_send4Bits
                      02442 ;   _LCD_send4Bits
                      02443 ;2 compiler assigned registers:
                      02444 ;   r0x1011
                      02445 ;   r0x1012
                      02446 ;; Starting pCode block
                      02447 S_main__LCD_send        code
0000                  02448 _LCD_send:
                      02449 ; 2 exit points
                      02450 ;       .line   269; "main.c"   void LCD_send(uint8_t date)
0000   0??? 0???      02451         BANKSEL r0x1011
0002   00??           02452         MOVWF   r0x1011
                      02453 ;       .line   271; "main.c"   LCD_send4Bits(date);
0003   0??? 0???      02454         PAGESEL _LCD_send4Bits
0005   2???           02455         CALL    _LCD_send4Bits
0006   0??? 0???      02456         PAGESEL $
                      02457 ;       .line   272; "main.c"   LCD_send4Bits(date<<4);
gpasm-1.5.0 #1285 (Sep 12 2016) obj\Release\m   10-28-2017  12:33:54        PAGE 48


LOC    OBJECT CODE    LINE  SOURCE TEXT
  VALUE

0008   0??? 0???      02458         BANKSEL r0x1011
000A   0E??           02459         SWAPF   r0x1011,W
000B   39F0           02460         ANDLW   0xf0
                      02461 ;;1     MOVWF   r0x1012
000C   0??? 0???      02462         PAGESEL _LCD_send4Bits
000E   2???           02463         CALL    _LCD_send4Bits
000F   0??? 0???      02464         PAGESEL $
0011   0008           02465         RETURN  
                      02466 ; exit point of _LCD_send
                      02467 
                      02468 ;***
                      02469 ;  pBlock Stats: dbName = C
                      02470 ;***
                      02471 ;has an exit
                      02472 ;functions called:
                      02473 ;   _delay_ms
                      02474 ;   _delay_ms
                      02475 ;   _delay_ms
                      02476 ;   _delay_ms
                      02477 ;4 compiler assigned registers:
                      02478 ;   r0x100E
                      02479 ;   r0x100F
                      02480 ;   r0x1010
                      02481 ;   STK00
                      02482 ;; Starting pCode block
                      02483 S_main__LCD_send4Bits   code
0000                  02484 _LCD_send4Bits:
                      02485 ; 2 exit points
                      02486 ;       .line   258; "main.c"   void LCD_send4Bits(uint8_t date)
0000   0??? 0???      02487         BANKSEL r0x100E
0002   00??           02488         MOVWF   r0x100E
                      02489 ;       .line   260; "main.c"   LCD_DATA_4 = (date & 0x10);
0003   3910           02490         ANDLW   0x10
0004   1D03           02491         BTFSS   STATUS,2
0005   3001           02492         MOVLW   0x01
0006   00??           02493         MOVWF   r0x100F
0007   00??           02494         MOVWF   r0x1010
0008   0C??           02495         RRF     r0x1010,W
0009   1803           02496         BTFSC   STATUS,0
000A   2???           02497         GOTO    _00008_DS_
000B   0??? 0???      02498         BANKSEL _PORTBbits
000D   12??           02499         BCF     _PORTBbits,4
000E                  02500 _00008_DS_:
000E   1C03           02501         BTFSS   STATUS,0
000F   2???           02502         GOTO    _00009_DS_
0010   0??? 0???      02503         BANKSEL _PORTBbits
0012   16??           02504         BSF     _PORTBbits,4
0013                  02505 _00009_DS_:
                      02506 ;       .line   261; "main.c"   LCD_DATA_5 = (date & 0x20);
0013   0??? 0???      02507         BANKSEL r0x100E
0015   08??           02508         MOVF    r0x100E,W
0016   3920           02509         ANDLW   0x20
0017   1D03           02510         BTFSS   STATUS,2
gpasm-1.5.0 #1285 (Sep 12 2016) obj\Release\m   10-28-2017  12:33:54        PAGE 49


LOC    OBJECT CODE    LINE  SOURCE TEXT
  VALUE

0018   3001           02511         MOVLW   0x01
0019   00??           02512         MOVWF   r0x100F
001A   00??           02513         MOVWF   r0x1010
001B   0C??           02514         RRF     r0x1010,W
001C   1803           02515         BTFSC   STATUS,0
001D   2???           02516         GOTO    _00010_DS_
001E   0??? 0???      02517         BANKSEL _PORTBbits
0020   12??           02518         BCF     _PORTBbits,5
0021                  02519 _00010_DS_:
0021   1C03           02520         BTFSS   STATUS,0
0022   2???           02521         GOTO    _00011_DS_
0023   0??? 0???      02522         BANKSEL _PORTBbits
0025   16??           02523         BSF     _PORTBbits,5
0026                  02524 _00011_DS_:
                      02525 ;       .line   262; "main.c"   LCD_DATA_6 = (date & 0x40);
0026   0??? 0???      02526         BANKSEL r0x100E
0028   08??           02527         MOVF    r0x100E,W
0029   3940           02528         ANDLW   0x40
002A   1D03           02529         BTFSS   STATUS,2
002B   3001           02530         MOVLW   0x01
002C   00??           02531         MOVWF   r0x100F
002D   00??           02532         MOVWF   r0x1010
002E   0C??           02533         RRF     r0x1010,W
002F   1803           02534         BTFSC   STATUS,0
0030   2???           02535         GOTO    _00012_DS_
0031   0??? 0???      02536         BANKSEL _PORTBbits
0033   13??           02537         BCF     _PORTBbits,6
0034                  02538 _00012_DS_:
0034   1C03           02539         BTFSS   STATUS,0
0035   2???           02540         GOTO    _00013_DS_
0036   0??? 0???      02541         BANKSEL _PORTBbits
0038   17??           02542         BSF     _PORTBbits,6
0039                  02543 _00013_DS_:
                      02544 ;       .line   263; "main.c"   LCD_DATA_7 = (date & 0x80);
0039   0??? 0???      02545         BANKSEL r0x100E
003B   08??           02546         MOVF    r0x100E,W
003C   3980           02547         ANDLW   0x80
003D   1D03           02548         BTFSS   STATUS,2
003E   3001           02549         MOVLW   0x01
003F   00??           02550         MOVWF   r0x100F
0040   00??           02551         MOVWF   r0x100E
0041   0C??           02552         RRF     r0x100E,W
0042   1803           02553         BTFSC   STATUS,0
0043   2???           02554         GOTO    _00014_DS_
0044   0??? 0???      02555         BANKSEL _PORTBbits
0046   13??           02556         BCF     _PORTBbits,7
0047                  02557 _00014_DS_:
0047   1C03           02558         BTFSS   STATUS,0
0048   2???           02559         GOTO    _00015_DS_
0049   0??? 0???      02560         BANKSEL _PORTBbits
004B   17??           02561         BSF     _PORTBbits,7
004C                  02562 _00015_DS_:
                      02563 ;       .line   264; "main.c"   LCD_EN     = HIGH_ST;
gpasm-1.5.0 #1285 (Sep 12 2016) obj\Release\m   10-28-2017  12:33:54        PAGE 50


LOC    OBJECT CODE    LINE  SOURCE TEXT
  VALUE

004C   0??? 0???      02564         BANKSEL _PORTBbits
004E   15??           02565         BSF     _PORTBbits,3
                      02566 ;       .line   265; "main.c"   delay_ms(1);
004F   3001           02567         MOVLW   0x01
0050   00??           02568         MOVWF   STK00
0051   3000           02569         MOVLW   0x00
0052   0??? 0???      02570         PAGESEL _delay_ms
0054   2???           02571         CALL    _delay_ms
0055   0??? 0???      02572         PAGESEL $
                      02573 ;       .line   266; "main.c"   LCD_EN     = LOW_ST;
0057   0??? 0???      02574         BANKSEL _PORTBbits
0059   11??           02575         BCF     _PORTBbits,3
                      02576 ;       .line   267; "main.c"   delay_ms(1);
005A   3001           02577         MOVLW   0x01
005B   00??           02578         MOVWF   STK00
005C   3000           02579         MOVLW   0x00
005D   0??? 0???      02580         PAGESEL _delay_ms
005F   2???           02581         CALL    _delay_ms
0060   0??? 0???      02582         PAGESEL $
0062   0008           02583         RETURN  
                      02584 ; exit point of _LCD_send4Bits
                      02585 
                      02586 ;***
                      02587 ;  pBlock Stats: dbName = C
                      02588 ;***
                      02589 ;has an exit
                      02590 ;7 compiler assigned registers:
                      02591 ;   r0x1008
                      02592 ;   STK00
                      02593 ;   r0x1009
                      02594 ;   r0x100A
                      02595 ;   r0x100B
                      02596 ;   r0x100C
                      02597 ;   r0x100D
                      02598 ;; Starting pCode block
                      02599 S_main__delay_ms        code
0000                  02600 _delay_ms:
                      02601 ; 2 exit points
                      02602 ;       .line   238; "main.c"   void delay_ms(uint16_t ms)
0000   0??? 0???      02603         BANKSEL r0x1008
0002   00??           02604         MOVWF   r0x1008
0003   08??           02605         MOVF    STK00,W
0004   00??           02606         MOVWF   r0x1009
0005                  02607 _00108_DS_:
                      02608 ;       .line   248; "main.c"   while(ms--)
0005   0??? 0???      02609         BANKSEL r0x1009
0007   08??           02610         MOVF    r0x1009,W
0008   00??           02611         MOVWF   r0x100A
0009   08??           02612         MOVF    r0x1008,W
000A   00??           02613         MOVWF   r0x100B
000B   30FF           02614         MOVLW   0xff
000C   07??           02615         ADDWF   r0x1009,F
000D   1C03           02616         BTFSS   STATUS,0
gpasm-1.5.0 #1285 (Sep 12 2016) obj\Release\m   10-28-2017  12:33:54        PAGE 51


LOC    OBJECT CODE    LINE  SOURCE TEXT
  VALUE

000E   03??           02617         DECF    r0x1008,F
000F   08??           02618         MOVF    r0x100A,W
0010   04??           02619         IORWF   r0x100B,W
0011   1903           02620         BTFSC   STATUS,2
0012   2???           02621         GOTO    _00111_DS_
                      02622 ;       .line   251; "main.c"   while(aux--);
0013   303D           02623         MOVLW   0x3d
0014   00??           02624         MOVWF   r0x100A
0015   01??           02625         CLRF    r0x100B
0016                  02626 _00105_DS_:
0016   0??? 0???      02627         BANKSEL r0x100A
0018   08??           02628         MOVF    r0x100A,W
0019   00??           02629         MOVWF   r0x100C
001A   08??           02630         MOVF    r0x100B,W
001B   00??           02631         MOVWF   r0x100D
001C   30FF           02632         MOVLW   0xff
001D   07??           02633         ADDWF   r0x100A,F
001E   1C03           02634         BTFSS   STATUS,0
001F   03??           02635         DECF    r0x100B,F
0020   08??           02636         MOVF    r0x100C,W
0021   04??           02637         IORWF   r0x100D,W
0022   1903           02638         BTFSC   STATUS,2
0023   2???           02639         GOTO    _00108_DS_
0024   2???           02640         GOTO    _00105_DS_
0025                  02641 _00111_DS_:
0025   0008           02642         RETURN  
                      02643 ; exit point of _delay_ms
                      02644 
                      02645 
                      02646 ;       code size estimation:
                      02647 ;         965+  427 =  1392 instructions ( 3638 byte)
                      02648 
                      02649         end
gpasm-1.5.0 #1285 (Sep 12 2016) obj\Release\m   10-28-2017  12:33:54        PAGE 52


SYMBOL TABLE
  LABEL                              TYPE        VALUE         VALUE          VALUE
                                                 (hex)         (dec)          (text)

ACKDT                             CONSTANT      00000005              5
ACKEN                             CONSTANT      00000004              4
ACKSTAT                           CONSTANT      00000006              6
ADCON0                            CONSTANT      0000001F             31
ADCON1                            CONSTANT      0000009F            159
ADCS0                             CONSTANT      00000006              6
ADCS1                             CONSTANT      00000007              7
ADCS2                             CONSTANT      00000006              6
ADDEN                             CONSTANT      00000003              3
ADFM                              CONSTANT      00000007              7
ADIE                              CONSTANT      00000006              6
ADIF                              CONSTANT      00000006              6
ADON                              CONSTANT      00000000              0
ADRESH                            CONSTANT      0000001E             30
ADRESL                            CONSTANT      0000009E            158
BCLIE                             CONSTANT      00000003              3
BCLIF                             CONSTANT      00000003              3
BF                                CONSTANT      00000000              0
BRGH                              CONSTANT      00000002              2
C                                 CONSTANT      00000000              0
C1INV                             CONSTANT      00000004              4
C1OUT                             CONSTANT      00000006              6
C2INV                             CONSTANT      00000005              5
C2OUT                             CONSTANT      00000007              7
CCP1CON                           CONSTANT      00000017             23
CCP1IE                            CONSTANT      00000002              2
CCP1IF                            CONSTANT      00000002              2
CCP1M0                            CONSTANT      00000000              0
CCP1M1                            CONSTANT      00000001              1
CCP1M2                            CONSTANT      00000002              2
CCP1M3                            CONSTANT      00000003              3
CCP1X                             CONSTANT      00000005              5
CCP1Y                             CONSTANT      00000004              4
CCP2CON                           CONSTANT      0000001D             29
CCP2IE                            CONSTANT      00000000              0
CCP2IF                            CONSTANT      00000000              0
CCP2M0                            CONSTANT      00000000              0
CCP2M1                            CONSTANT      00000001              1
CCP2M2                            CONSTANT      00000002              2
CCP2M3                            CONSTANT      00000003              3
CCP2X                             CONSTANT      00000005              5
CCP2Y                             CONSTANT      00000004              4
CCPR1                             CONSTANT      00000015             21
CCPR1H                            CONSTANT      00000016             22
CCPR1L                            CONSTANT      00000015             21
CCPR2                             CONSTANT      0000001B             27
CCPR2H                            CONSTANT      0000001C             28
CCPR2L                            CONSTANT      0000001B             27
CHS0                              CONSTANT      00000003              3
CHS1                              CONSTANT      00000004              4
CHS2                              CONSTANT      00000005              5
CIS                               CONSTANT      00000003              3
gpasm-1.5.0 #1285 (Sep 12 2016) obj\Release\m   10-28-2017  12:33:54        PAGE 53


SYMBOL TABLE
  LABEL                              TYPE        VALUE         VALUE          VALUE
                                                 (hex)         (dec)          (text)

CKE                               CONSTANT      00000006              6
CKP                               CONSTANT      00000004              4
CM0                               CONSTANT      00000000              0
CM1                               CONSTANT      00000001              1
CM2                               CONSTANT      00000002              2
CMCON                             CONSTANT      0000009C            156
CMIE                              CONSTANT      00000006              6
CMIF                              CONSTANT      00000006              6
CREN                              CONSTANT      00000004              4
CSRC                              CONSTANT      00000007              7
CVR0                              CONSTANT      00000000              0
CVR1                              CONSTANT      00000001              1
CVR2                              CONSTANT      00000002              2
CVR3                              CONSTANT      00000003              3
CVRCON                            CONSTANT      0000009D            157
CVREN                             CONSTANT      00000007              7
CVROE                             CONSTANT      00000006              6
CVRR                              CONSTANT      00000005              5
D                                 CONSTANT      00000005              5
DATA_ADDRESS                      CONSTANT      00000005              5
DC                                CONSTANT      00000001              1
D_A                               CONSTANT      00000005              5
D_NOT_A                           CONSTANT      00000005              5
EEADR                             CONSTANT      0000010D            269
EEADRH                            CONSTANT      0000010F            271
EECON1                            CONSTANT      0000018C            396
EECON2                            CONSTANT      0000018D            397
EEDATA                            CONSTANT      0000010C            268
EEDATH                            CONSTANT      0000010E            270
EEIE                              CONSTANT      00000004              4
EEIF                              CONSTANT      00000004              4
EEPGD                             CONSTANT      00000007              7
F                                 CONSTANT      00000001              1
FERR                              CONSTANT      00000002              2
FSR                               CONSTANT      00000004              4
GCEN                              CONSTANT      00000007              7
GIE                               CONSTANT      00000007              7
GO                                CONSTANT      00000002              2
GO_DONE                           CONSTANT      00000002              2
GO_NOT_DONE                       CONSTANT      00000002              2
I2C_DATA                          CONSTANT      00000005              5
I2C_READ                          CONSTANT      00000002              2
I2C_START                         CONSTANT      00000003              3
I2C_STOP                          CONSTANT      00000004              4
IBF                               CONSTANT      00000007              7
IBOV                              CONSTANT      00000005              5
INDF                              CONSTANT      00000000              0
INTCON                            CONSTANT      0000000B             11
INTE                              CONSTANT      00000004              4
INTEDG                            CONSTANT      00000006              6
INTF                              CONSTANT      00000001              1
IRP                               CONSTANT      00000007              7
gpasm-1.5.0 #1285 (Sep 12 2016) obj\Release\m   10-28-2017  12:33:54        PAGE 54


SYMBOL TABLE
  LABEL                              TYPE        VALUE         VALUE          VALUE
                                                 (hex)         (dec)          (text)

NOT_A                             CONSTANT      00000005              5
NOT_ADDRESS                       CONSTANT      00000005              5
NOT_BO                            CONSTANT      00000000              0
NOT_BOR                           CONSTANT      00000000              0
NOT_DONE                          CONSTANT      00000002              2
NOT_PD                            CONSTANT      00000003              3
NOT_POR                           CONSTANT      00000001              1
NOT_RBPU                          CONSTANT      00000007              7
NOT_RC8                           CONSTANT      00000006              6
NOT_T1SYNC                        CONSTANT      00000002              2
NOT_TO                            CONSTANT      00000004              4
NOT_TX8                           CONSTANT      00000006              6
NOT_W                             CONSTANT      00000002              2
NOT_WRITE                         CONSTANT      00000002              2
OBF                               CONSTANT      00000006              6
OERR                              CONSTANT      00000001              1
OPTION_REG                        CONSTANT      00000081            129
P                                 CONSTANT      00000004              4
PCFG0                             CONSTANT      00000000              0
PCFG1                             CONSTANT      00000001              1
PCFG2                             CONSTANT      00000002              2
PCFG3                             CONSTANT      00000003              3
PCL                               CONSTANT      00000002              2
PCLATH                            CONSTANT      0000000A             10
PCON                              CONSTANT      0000008E            142
PEIE                              CONSTANT      00000006              6
PEN                               CONSTANT      00000002              2
PIE1                              CONSTANT      0000008C            140
PIE2                              CONSTANT      0000008D            141
PIR1                              CONSTANT      0000000C             12
PIR2                              CONSTANT      0000000D             13
PORTA                             CONSTANT      00000005              5
PORTB                             CONSTANT      00000006              6
PORTC                             CONSTANT      00000007              7
PORTD                             CONSTANT      00000008              8
PORTE                             CONSTANT      00000009              9
PR2                               CONSTANT      00000092            146
PS0                               CONSTANT      00000000              0
PS1                               CONSTANT      00000001              1
PS2                               CONSTANT      00000002              2
PSA                               CONSTANT      00000003              3
PSAVE                             GLOBAL        00000070            112
PSPIE                             CONSTANT      00000007              7
PSPIF                             CONSTANT      00000007              7
PSPMODE                           CONSTANT      00000004              4
R                                 CONSTANT      00000002              2
RA0                               CONSTANT      00000000              0
RA1                               CONSTANT      00000001              1
RA2                               CONSTANT      00000002              2
RA3                               CONSTANT      00000003              3
RA4                               CONSTANT      00000004              4
RA5                               CONSTANT      00000005              5
gpasm-1.5.0 #1285 (Sep 12 2016) obj\Release\m   10-28-2017  12:33:54        PAGE 55


SYMBOL TABLE
  LABEL                              TYPE        VALUE         VALUE          VALUE
                                                 (hex)         (dec)          (text)

RB0                               CONSTANT      00000000              0
RB1                               CONSTANT      00000001              1
RB2                               CONSTANT      00000002              2
RB3                               CONSTANT      00000003              3
RB4                               CONSTANT      00000004              4
RB5                               CONSTANT      00000005              5
RB6                               CONSTANT      00000006              6
RB7                               CONSTANT      00000007              7
RBIE                              CONSTANT      00000003              3
RBIF                              CONSTANT      00000000              0
RC0                               CONSTANT      00000000              0
RC1                               CONSTANT      00000001              1
RC2                               CONSTANT      00000002              2
RC3                               CONSTANT      00000003              3
RC4                               CONSTANT      00000004              4
RC5                               CONSTANT      00000005              5
RC6                               CONSTANT      00000006              6
RC7                               CONSTANT      00000007              7
RC8_9                             CONSTANT      00000006              6
RC9                               CONSTANT      00000006              6
RCD8                              CONSTANT      00000000              0
RCEN                              CONSTANT      00000003              3
RCIE                              CONSTANT      00000005              5
RCIF                              CONSTANT      00000005              5
RCREG                             CONSTANT      0000001A             26
RCSTA                             CONSTANT      00000018             24
RD                                CONSTANT      00000000              0
RD0                               CONSTANT      00000000              0
RD1                               CONSTANT      00000001              1
RD2                               CONSTANT      00000002              2
RD3                               CONSTANT      00000003              3
RD4                               CONSTANT      00000004              4
RD5                               CONSTANT      00000005              5
RD6                               CONSTANT      00000006              6
RD7                               CONSTANT      00000007              7
RE0                               CONSTANT      00000000              0
RE1                               CONSTANT      00000001              1
RE2                               CONSTANT      00000002              2
READ_WRITE                        CONSTANT      00000002              2
RP0                               CONSTANT      00000005              5
RP1                               CONSTANT      00000006              6
RSEN                              CONSTANT      00000001              1
RX9                               CONSTANT      00000006              6
RX9D                              CONSTANT      00000000              0
R_NOT_W                           CONSTANT      00000002              2
R_W                               CONSTANT      00000002              2
S                                 CONSTANT      00000003              3
SEN                               CONSTANT      00000000              0
SMP                               CONSTANT      00000007              7
SPBRG                             CONSTANT      00000099            153
SPEN                              CONSTANT      00000007              7
SREN                              CONSTANT      00000005              5
gpasm-1.5.0 #1285 (Sep 12 2016) obj\Release\m   10-28-2017  12:33:54        PAGE 56


SYMBOL TABLE
  LABEL                              TYPE        VALUE         VALUE          VALUE
                                                 (hex)         (dec)          (text)

SSAVE                             GLOBAL        00000071            113
SSPADD                            CONSTANT      00000093            147
SSPBUF                            CONSTANT      00000013             19
SSPCON                            CONSTANT      00000014             20
SSPCON2                           CONSTANT      00000091            145
SSPEN                             CONSTANT      00000005              5
SSPIE                             CONSTANT      00000003              3
SSPIF                             CONSTANT      00000003              3
SSPM0                             CONSTANT      00000000              0
SSPM1                             CONSTANT      00000001              1
SSPM2                             CONSTANT      00000002              2
SSPM3                             CONSTANT      00000003              3
SSPOV                             CONSTANT      00000006              6
SSPSTAT                           CONSTANT      00000094            148
STATUS                            CONSTANT      00000003              3
STK00                             GLOBAL        0000007F            127
STK01                             GLOBAL        0000007E            126
STK02                             GLOBAL        0000007D            125
STK03                             GLOBAL        0000007C            124
STK04                             GLOBAL        0000007B            123
STK05                             GLOBAL        0000007A            122
STK06                             GLOBAL        00000079            121
STK07                             GLOBAL        00000078            120
STK08                             GLOBAL        00000077            119
STK09                             GLOBAL        00000076            118
STK10                             GLOBAL        00000075            117
STK11                             GLOBAL        00000074            116
STK12                             GLOBAL        00000073            115
SYNC                              CONSTANT      00000004              4
T0CS                              CONSTANT      00000005              5
T0IE                              CONSTANT      00000005              5
T0IF                              CONSTANT      00000002              2
T0SE                              CONSTANT      00000004              4
T1CKPS0                           CONSTANT      00000004              4
T1CKPS1                           CONSTANT      00000005              5
T1CON                             CONSTANT      00000010             16
T1INSYNC                          CONSTANT      00000002              2
T1OSCEN                           CONSTANT      00000003              3
T1SYNC                            CONSTANT      00000002              2
T2CKPS0                           CONSTANT      00000000              0
T2CKPS1                           CONSTANT      00000001              1
T2CON                             CONSTANT      00000012             18
TMR0                              CONSTANT      00000001              1
TMR0IE                            CONSTANT      00000005              5
TMR0IF                            CONSTANT      00000002              2
TMR1                              CONSTANT      0000000E             14
TMR1CS                            CONSTANT      00000001              1
TMR1H                             CONSTANT      0000000F             15
TMR1IE                            CONSTANT      00000000              0
TMR1IF                            CONSTANT      00000000              0
TMR1L                             CONSTANT      0000000E             14
TMR1ON                            CONSTANT      00000000              0
gpasm-1.5.0 #1285 (Sep 12 2016) obj\Release\m   10-28-2017  12:33:54        PAGE 57


SYMBOL TABLE
  LABEL                              TYPE        VALUE         VALUE          VALUE
                                                 (hex)         (dec)          (text)

TMR2                              CONSTANT      00000011             17
TMR2IE                            CONSTANT      00000001              1
TMR2IF                            CONSTANT      00000001              1
TMR2ON                            CONSTANT      00000002              2
TOUTPS0                           CONSTANT      00000003              3
TOUTPS1                           CONSTANT      00000004              4
TOUTPS2                           CONSTANT      00000005              5
TOUTPS3                           CONSTANT      00000006              6
TRISA                             CONSTANT      00000085            133
TRISA0                            CONSTANT      00000000              0
TRISA1                            CONSTANT      00000001              1
TRISA2                            CONSTANT      00000002              2
TRISA3                            CONSTANT      00000003              3
TRISA4                            CONSTANT      00000004              4
TRISA5                            CONSTANT      00000005              5
TRISB                             CONSTANT      00000086            134
TRISB0                            CONSTANT      00000000              0
TRISB1                            CONSTANT      00000001              1
TRISB2                            CONSTANT      00000002              2
TRISB3                            CONSTANT      00000003              3
TRISB4                            CONSTANT      00000004              4
TRISB5                            CONSTANT      00000005              5
TRISB6                            CONSTANT      00000006              6
TRISB7                            CONSTANT      00000007              7
TRISC                             CONSTANT      00000087            135
TRISC0                            CONSTANT      00000000              0
TRISC1                            CONSTANT      00000001              1
TRISC2                            CONSTANT      00000002              2
TRISC3                            CONSTANT      00000003              3
TRISC4                            CONSTANT      00000004              4
TRISC5                            CONSTANT      00000005              5
TRISC6                            CONSTANT      00000006              6
TRISC7                            CONSTANT      00000007              7
TRISD                             CONSTANT      00000088            136
TRISD0                            CONSTANT      00000000              0
TRISD1                            CONSTANT      00000001              1
TRISD2                            CONSTANT      00000002              2
TRISD3                            CONSTANT      00000003              3
TRISD4                            CONSTANT      00000004              4
TRISD5                            CONSTANT      00000005              5
TRISD6                            CONSTANT      00000006              6
TRISD7                            CONSTANT      00000007              7
TRISE                             CONSTANT      00000089            137
TRISE0                            CONSTANT      00000000              0
TRISE1                            CONSTANT      00000001              1
TRISE2                            CONSTANT      00000002              2
TRMT                              CONSTANT      00000001              1
TX8_9                             CONSTANT      00000006              6
TX9                               CONSTANT      00000006              6
TX9D                              CONSTANT      00000000              0
TXD8                              CONSTANT      00000000              0
TXEN                              CONSTANT      00000005              5
gpasm-1.5.0 #1285 (Sep 12 2016) obj\Release\m   10-28-2017  12:33:54        PAGE 58


SYMBOL TABLE
  LABEL                              TYPE        VALUE         VALUE          VALUE
                                                 (hex)         (dec)          (text)

TXIE                              CONSTANT      00000004              4
TXIF                              CONSTANT      00000004              4
TXREG                             CONSTANT      00000019             25
TXSTA                             CONSTANT      00000098            152
UA                                CONSTANT      00000001              1
W                                 CONSTANT      00000000              0
WCOL                              CONSTANT      00000007              7
WR                                CONSTANT      00000001              1
WREN                              CONSTANT      00000002              2
WRERR                             CONSTANT      00000003              3
WSAVE                             GLOBAL        00000072            114
Z                                 CONSTANT      00000002              2
_00001_DS_                        ADDRESS       0000001B             27
_00002_DS_                        ADDRESS       00000018             24
_00003_DS_                        ADDRESS       00000033             51
_00004_DS_                        ADDRESS       00000038             56
_00005_DS_                        ADDRESS       00000011             17
_00006_DS_                        ADDRESS       00000016             22
_00007_DS_                        ADDRESS       00000037             55
_00008_DS_                        ADDRESS       0000000E             14
_00009_DS_                        ADDRESS       00000013             19
_00010_DS_                        ADDRESS       00000021             33
_00011_DS_                        ADDRESS       00000026             38
_00012_DS_                        ADDRESS       00000034             52
_00013_DS_                        ADDRESS       00000039             57
_00014_DS_                        ADDRESS       00000047             71
_00015_DS_                        ADDRESS       0000004C             76
_00105_DS_                        ADDRESS       00000016             22
_00108_DS_                        ADDRESS       00000005              5
_00111_DS_                        ADDRESS       00000025             37
_00133_DS_                        ADDRESS       00000011             17
_00135_DS_                        ADDRESS       0000001B             27
_00140_DS_                        ADDRESS       00000007              7
_00143_DS_                        ADDRESS       00000027             39
_00161_DS_                        ADDRESS       00000004              4
_00169_DS_                        ADDRESS       0000000A             10
_00190_DS_                        ADDRESS       00000023             35
_00191_DS_                        ADDRESS       00000036             54
_00192_DS_                        ADDRESS       00000049             73
_00193_DS_                        ADDRESS       0000005C             92
_00194_DS_                        ADDRESS       0000006F            111
_00195_DS_                        ADDRESS       00000082            130
_00196_DS_                        ADDRESS       00000095            149
_00198_DS_                        ADDRESS       000000A7            167
_00208_DS_                        ADDRESS       0000001C             28
_00218_DS_                        ADDRESS       0000001C             28
_00219_DS_                        ADDRESS       0000002E             46
_00220_DS_                        ADDRESS       00000030             48
_00224_DS_                        ADDRESS       00000031             49
_00226_DS_                        ADDRESS       00000014             20
_00227_DS_                        ADDRESS       00000018             24
_00260_DS_                        ADDRESS       00000086            134
gpasm-1.5.0 #1285 (Sep 12 2016) obj\Release\m   10-28-2017  12:33:54        PAGE 59


SYMBOL TABLE
  LABEL                              TYPE        VALUE         VALUE          VALUE
                                                 (hex)         (dec)          (text)

_00264_DS_                        ADDRESS       00000053             83
_00265_DS_                        ADDRESS       00000094            148
_00267_DS_                        ADDRESS       000000A9            169
_00268_DS_                        ADDRESS       000000BD            189
_00269_DS_                        ADDRESS       00000014             20
_00270_DS_                        ADDRESS       0000001A             26
_00271_DS_                        ADDRESS       000000C6            198
_00272_DS_                        ADDRESS       000000CD            205
_00274_DS_                        ADDRESS       000000DA            218
_00278_DS_                        ADDRESS       000000F8            248
_00322_DS_                        ADDRESS       0000001A             26
_00325_DS_                        ADDRESS       0000003A             58
_00328_DS_                        ADDRESS       0000005A             90
_00331_DS_                        ADDRESS       0000007E            126
_00334_DS_                        ADDRESS       0000009E            158
_00337_DS_                        ADDRESS       000000BE            190
_00340_DS_                        ADDRESS       00000014             20
_00342_DS_                        ADDRESS       000000DE            222
_00351_DS_                        ADDRESS       0000000D             13
_00353_DS_                        ADDRESS       0000001A             26
_00355_DS_                        ADDRESS       00000024             36
_00356_DS_                        ADDRESS       0000002E             46
_00359_DS_                        ADDRESS       00000032             50
_00363_DS_                        ADDRESS       00000005              5
_ADCON0                           EXTERNAL      00000000              0
_ADCON0bits                       EXTERNAL      00000000              0
_ADCON1                           EXTERNAL      00000000              0
_ADCON1bits                       EXTERNAL      00000000              0
_ADRESH                           EXTERNAL      00000000              0
_ADRESL                           EXTERNAL      00000000              0
_BCDToDecimal                     GLOBAL        00000000              0
_BODEN_OFF                        CONSTANT      00003FBF          16319
_BODEN_ON                         CONSTANT      00003FFF          16383
_BOREN_OFF                        CONSTANT      00003FBF          16319
_BOREN_ON                         CONSTANT      00003FFF          16383
_CCP1CON                          EXTERNAL      00000000              0
_CCP1CONbits                      EXTERNAL      00000000              0
_CCP2CON                          EXTERNAL      00000000              0
_CCP2CONbits                      EXTERNAL      00000000              0
_CCPR1                            EXTERNAL      00000000              0
_CCPR1H                           EXTERNAL      00000000              0
_CCPR1L                           EXTERNAL      00000000              0
_CCPR2                            EXTERNAL      00000000              0
_CCPR2H                           EXTERNAL      00000000              0
_CCPR2L                           EXTERNAL      00000000              0
_CMCON                            EXTERNAL      00000000              0
_CMCONbits                        EXTERNAL      00000000              0
_CONFIG                           CONSTANT      00002007           8199
_CPD_OFF                          CONSTANT      00003FFF          16383
_CPD_ON                           CONSTANT      00003EFF          16127
_CP_ALL                           CONSTANT      00001FFF           8191
_CP_OFF                           CONSTANT      00003FFF          16383
gpasm-1.5.0 #1285 (Sep 12 2016) obj\Release\m   10-28-2017  12:33:54        PAGE 60


SYMBOL TABLE
  LABEL                              TYPE        VALUE         VALUE          VALUE
                                                 (hex)         (dec)          (text)

_CP_ON                            CONSTANT      00001FFF           8191
_CVRCON                           EXTERNAL      00000000              0
_CVRCONbits                       EXTERNAL      00000000              0
_DEBUG_OFF                        CONSTANT      00003FFF          16383
_DEBUG_ON                         CONSTANT      000037FF          14335
_DEVID1                           CONSTANT      00002006           8198
_DS1307_Ano                       GLOBAL        00000000              0
_DS1307_Dia                       GLOBAL        00000000              0
_DS1307_DiaSemana                 GLOBAL        00000000              0
_DS1307_Hora                      GLOBAL        00000000              0
_DS1307_Mes                       GLOBAL        00000000              0
_DS1307_Minuto                    GLOBAL        00000000              0
_DS1307_Segundo                   GLOBAL        00000000              0
_DS1307_timeRead                  GLOBAL        00000000              0
_DS1307_timeWrite                 GLOBAL        00000000              0
_EEADR                            EXTERNAL      00000000              0
_EEADRH                           EXTERNAL      00000000              0
_EECON1                           EXTERNAL      00000000              0
_EECON1bits                       EXTERNAL      00000000              0
_EECON2                           EXTERNAL      00000000              0
_EEDATA                           EXTERNAL      00000000              0
_EEDATH                           EXTERNAL      00000000              0
_FOSC_EXTRC                       CONSTANT      00003FFF          16383
_FOSC_HS                          CONSTANT      00003FFE          16382
_FOSC_LP                          CONSTANT      00003FFC          16380
_FOSC_XT                          CONSTANT      00003FFD          16381
_FSR                              EXTERNAL      00000000              0
_HS_OSC                           CONSTANT      00003FFE          16382
_I2C_readByte                     GLOBAL        00000000              0
_I2C_start                        GLOBAL        00000000              0
_I2C_stop                         GLOBAL        00000000              0
_I2C_writeByte                    GLOBAL        00000000              0
_IDLOC0                           CONSTANT      00002000           8192
_IDLOC1                           CONSTANT      00002001           8193
_IDLOC2                           CONSTANT      00002002           8194
_IDLOC3                           CONSTANT      00002003           8195
_INDF                             EXTERNAL      00000000              0
_INTCON                           EXTERNAL      00000000              0
_INTCONbits                       EXTERNAL      00000000              0
_LCDPrintDiaSemana                GLOBAL        00000000              0
_LCDPrintNumero                   GLOBAL        00000000              0
_LCD_command                      GLOBAL        00000000              0
_LCD_gotoXY                       GLOBAL        00000000              0
_LCD_init                         GLOBAL        00000000              0
_LCD_print                        GLOBAL        00000000              0
_LCD_putChar                      GLOBAL        00000000              0
_LCD_send                         GLOBAL        00000000              0
_LCD_send4Bits                    GLOBAL        00000000              0
_LP_OSC                           CONSTANT      00003FFC          16380
_LVP_OFF                          CONSTANT      00003F7F          16255
_LVP_ON                           CONSTANT      00003FFF          16383
_OPTION_REG                       EXTERNAL      00000000              0
gpasm-1.5.0 #1285 (Sep 12 2016) obj\Release\m   10-28-2017  12:33:54        PAGE 61


SYMBOL TABLE
  LABEL                              TYPE        VALUE         VALUE          VALUE
                                                 (hex)         (dec)          (text)

_OPTION_REGbits                   EXTERNAL      00000000              0
_PCL                              EXTERNAL      00000000              0
_PCLATH                           EXTERNAL      00000000              0
_PCON                             EXTERNAL      00000000              0
_PCONbits                         EXTERNAL      00000000              0
_PIE1                             EXTERNAL      00000000              0
_PIE1bits                         EXTERNAL      00000000              0
_PIE2                             EXTERNAL      00000000              0
_PIE2bits                         EXTERNAL      00000000              0
_PIR1                             EXTERNAL      00000000              0
_PIR1bits                         EXTERNAL      00000000              0
_PIR2                             EXTERNAL      00000000              0
_PIR2bits                         EXTERNAL      00000000              0
_PORTA                            EXTERNAL      00000000              0
_PORTAbits                        EXTERNAL      00000000              0
_PORTB                            EXTERNAL      00000000              0
_PORTBbits                        EXTERNAL      00000000              0
_PORTC                            EXTERNAL      00000000              0
_PORTCbits                        EXTERNAL      00000000              0
_PORTD                            EXTERNAL      00000000              0
_PORTDbits                        EXTERNAL      00000000              0
_PORTE                            EXTERNAL      00000000              0
_PORTEbits                        EXTERNAL      00000000              0
_PR2                              EXTERNAL      00000000              0
_PWRTE_OFF                        CONSTANT      00003FFF          16383
_PWRTE_ON                         CONSTANT      00003FF7          16375
_RCREG                            EXTERNAL      00000000              0
_RCSTA                            EXTERNAL      00000000              0
_RCSTAbits                        EXTERNAL      00000000              0
_RC_OSC                           CONSTANT      00003FFF          16383
_SPBRG                            EXTERNAL      00000000              0
_SSPADD                           EXTERNAL      00000000              0
_SSPBUF                           EXTERNAL      00000000              0
_SSPCON                           EXTERNAL      00000000              0
_SSPCON2                          EXTERNAL      00000000              0
_SSPCON2bits                      EXTERNAL      00000000              0
_SSPCONbits                       EXTERNAL      00000000              0
_SSPSTAT                          EXTERNAL      00000000              0
_SSPSTATbits                      EXTERNAL      00000000              0
_STATUS                           EXTERNAL      00000000              0
_STATUSbits                       EXTERNAL      00000000              0
_S_main__BCDToDecimal_000F        ADDRESS       0000000F             15
_S_main__DS1307_timeRead_0003     ADDRESS       00000003              3
_S_main__DS1307_timeRead_0009     ADDRESS       00000009              9
_S_main__DS1307_timeRead_000F     ADDRESS       0000000F             15
_S_main__DS1307_timeRead_0014     ADDRESS       00000014             20
_S_main__DS1307_timeRead_001A     ADDRESS       0000001A             26
_S_main__DS1307_timeRead_0020     ADDRESS       00000020             32
_S_main__DS1307_timeRead_0028     ADDRESS       00000028             40
_S_main__DS1307_timeRead_0031     ADDRESS       00000031             49
_S_main__DS1307_timeRead_0039     ADDRESS       00000039             57
_S_main__DS1307_timeRead_0042     ADDRESS       00000042             66
gpasm-1.5.0 #1285 (Sep 12 2016) obj\Release\m   10-28-2017  12:33:54        PAGE 62


SYMBOL TABLE
  LABEL                              TYPE        VALUE         VALUE          VALUE
                                                 (hex)         (dec)          (text)

_S_main__DS1307_timeRead_004A     ADDRESS       0000004A             74
_S_main__DS1307_timeRead_0053     ADDRESS       00000053             83
_S_main__DS1307_timeRead_005C     ADDRESS       0000005C             92
_S_main__DS1307_timeRead_0064     ADDRESS       00000064            100
_S_main__DS1307_timeRead_006D     ADDRESS       0000006D            109
_S_main__DS1307_timeRead_0075     ADDRESS       00000075            117
_S_main__DS1307_timeRead_007E     ADDRESS       0000007E            126
_S_main__DS1307_timeRead_0086     ADDRESS       00000086            134
_S_main__DS1307_timeRead_008E     ADDRESS       0000008E            142
_S_main__DS1307_timeWrite_0003    ADDRESS       00000003              3
_S_main__DS1307_timeWrite_0009    ADDRESS       00000009              9
_S_main__DS1307_timeWrite_000F    ADDRESS       0000000F             15
_S_main__DS1307_timeWrite_0015    ADDRESS       00000015             21
_S_main__DS1307_timeWrite_001D    ADDRESS       0000001D             29
_S_main__DS1307_timeWrite_0025    ADDRESS       00000025             37
_S_main__DS1307_timeWrite_002D    ADDRESS       0000002D             45
_S_main__DS1307_timeWrite_0035    ADDRESS       00000035             53
_S_main__DS1307_timeWrite_003D    ADDRESS       0000003D             61
_S_main__DS1307_timeWrite_0045    ADDRESS       00000045             69
_S_main__DS1307_timeWrite_004D    ADDRESS       0000004D             77
_S_main__DS1307_timeWrite_0055    ADDRESS       00000055             85
_S_main__DS1307_timeWrite_005D    ADDRESS       0000005D             93
_S_main__DS1307_timeWrite_0065    ADDRESS       00000065            101
_S_main__DS1307_timeWrite_006D    ADDRESS       0000006D            109
_S_main__DS1307_timeWrite_0072    ADDRESS       00000072            114
_S_main__LCDPrintDiaSemana_0033   ADDRESS       00000033             51
_S_main__LCDPrintDiaSemana_0046   ADDRESS       00000046             70
_S_main__LCDPrintDiaSemana_0059   ADDRESS       00000059             89
_S_main__LCDPrintDiaSemana_006C   ADDRESS       0000006C            108
_S_main__LCDPrintDiaSemana_007F   ADDRESS       0000007F            127
_S_main__LCDPrintDiaSemana_0092   ADDRESS       00000092            146
_S_main__LCDPrintDiaSemana_00A5   ADDRESS       000000A5            165
_S_main__LCDPrintNumero_0009      ADDRESS       00000009              9
_S_main__LCDPrintNumero_0014      ADDRESS       00000014             20
_S_main__LCDPrintNumero_001E      ADDRESS       0000001E             30
_S_main__LCDPrintNumero_0029      ADDRESS       00000029             41
_S_main__LCD_command_000C         ADDRESS       0000000C             12
_S_main__LCD_gotoXY_000E          ADDRESS       0000000E             14
_S_main__LCD_gotoXY_0019          ADDRESS       00000019             25
_S_main__LCD_init_000E            ADDRESS       0000000E             14
_S_main__LCD_init_001A            ADDRESS       0000001A             26
_S_main__LCD_init_0020            ADDRESS       00000020             32
_S_main__LCD_init_0028            ADDRESS       00000028             40
_S_main__LCD_init_002E            ADDRESS       0000002E             46
_S_main__LCD_init_0036            ADDRESS       00000036             54
_S_main__LCD_init_003C            ADDRESS       0000003C             60
_S_main__LCD_init_0042            ADDRESS       00000042             66
_S_main__LCD_init_0048            ADDRESS       00000048             72
_S_main__LCD_init_004E            ADDRESS       0000004E             78
_S_main__LCD_init_0054            ADDRESS       00000054             84
_S_main__LCD_init_005A            ADDRESS       0000005A             90
_S_main__LCD_init_0060            ADDRESS       00000060             96
gpasm-1.5.0 #1285 (Sep 12 2016) obj\Release\m   10-28-2017  12:33:54        PAGE 63


SYMBOL TABLE
  LABEL                              TYPE        VALUE         VALUE          VALUE
                                                 (hex)         (dec)          (text)

_S_main__LCD_print_0011           ADDRESS       00000011             17
_S_main__LCD_print_001D           ADDRESS       0000001D             29
_S_main__LCD_putChar_000C         ADDRESS       0000000C             12
_S_main__LCD_send4Bits_0055       ADDRESS       00000055             85
_S_main__LCD_send4Bits_0060       ADDRESS       00000060             96
_S_main__LCD_send_0006            ADDRESS       00000006              6
_S_main__LCD_send_000F            ADDRESS       0000000F             15
_S_main__cicloTimeSet_001E        ADDRESS       0000001E             30
_S_main__cicloTimeSet_002E        ADDRESS       0000002E             46
_S_main__cicloTimeSet_003E        ADDRESS       0000003E             62
_S_main__cicloTimeSet_0050        ADDRESS       00000050             80
_S_main__cicloTimeSet_005D        ADDRESS       0000005D             93
_S_main__cicloTimeSet_006D        ADDRESS       0000006D            109
_S_main__cicloTimeSet_0079        ADDRESS       00000079            121
_S_main__cicloTimeSet_0092        ADDRESS       00000092            146
_S_main__cicloTimeSet_009C        ADDRESS       0000009C            156
_S_main__cicloTimeSet_00A6        ADDRESS       000000A6            166
_S_main__cicloTimeSet_00B3        ADDRESS       000000B3            179
_S_main__cicloTimeSet_00BB        ADDRESS       000000BB            187
_S_main__cicloTimeSet_00C3        ADDRESS       000000C3            195
_S_main__cicloTimeSet_00D7        ADDRESS       000000D7            215
_S_main__cicloTimeSet_00E4        ADDRESS       000000E4            228
_S_main__cicloTimeSet_00F6        ADDRESS       000000F6            246
_S_main__cicloTimeSet_0105        ADDRESS       00000105            261
_S_main__cicloTimeSet_010B        ADDRESS       0000010B            267
_S_main__decimalToBCD_0009        ADDRESS       00000009              9
_S_main__decimalToBCD_0017        ADDRESS       00000017             23
_S_main__diasDelMes_0009          ADDRESS       00000009              9
_S_main__main_0003                ADDRESS       00000003              3
_S_main__main_0017                ADDRESS       00000017             23
_S_main__main_001D                ADDRESS       0000001D             29
_S_main__main_0022                ADDRESS       00000022             34
_S_main__main_0027                ADDRESS       00000027             39
_S_main__main_002C                ADDRESS       0000002C             44
_S_main__setup_0013               ADDRESS       00000013             19
_S_main__setup_0019               ADDRESS       00000019             25
_S_main__setup_001F               ADDRESS       0000001F             31
_S_main__setup_0025               ADDRESS       00000025             37
_S_main__setup_002A               ADDRESS       0000002A             42
_S_main__setup_002F               ADDRESS       0000002F             47
_S_main__timeSet_0006             ADDRESS       00000006              6
_S_main__timeSet_000C             ADDRESS       0000000C             12
_S_main__timeSet_0012             ADDRESS       00000012             18
_S_main__timeSet_0037             ADDRESS       00000037             55
_S_main__timeSet_0057             ADDRESS       00000057             87
_S_main__timeSet_0063             ADDRESS       00000063             99
_S_main__timeSet_007B             ADDRESS       0000007B            123
_S_main__timeSet_009B             ADDRESS       0000009B            155
_S_main__timeSet_00BB             ADDRESS       000000BB            187
_S_main__timeSet_00DB             ADDRESS       000000DB            219
_S_main__timeSet_00E2             ADDRESS       000000E2            226
_S_main__timeShow_0006            ADDRESS       00000006              6
gpasm-1.5.0 #1285 (Sep 12 2016) obj\Release\m   10-28-2017  12:33:54        PAGE 64


SYMBOL TABLE
  LABEL                              TYPE        VALUE         VALUE          VALUE
                                                 (hex)         (dec)          (text)

_S_main__timeShow_000E            ADDRESS       0000000E             14
_S_main__timeShow_0014            ADDRESS       00000014             20
_S_main__timeShow_001C            ADDRESS       0000001C             28
_S_main__timeShow_0022            ADDRESS       00000022             34
_S_main__timeShow_002A            ADDRESS       0000002A             42
_S_main__timeShow_003C            ADDRESS       0000003C             60
_S_main__timeShow_0041            ADDRESS       00000041             65
_S_main__timeShow_0049            ADDRESS       00000049             73
_S_main__timeShow_0051            ADDRESS       00000051             81
_S_main__timeShow_0057            ADDRESS       00000057             87
_S_main__timeShow_005F            ADDRESS       0000005F             95
_S_main__timeShow_0065            ADDRESS       00000065            101
_S_main__timeShow_006D            ADDRESS       0000006D            109
_T1CON                            EXTERNAL      00000000              0
_T1CONbits                        EXTERNAL      00000000              0
_T2CON                            EXTERNAL      00000000              0
_T2CONbits                        EXTERNAL      00000000              0
_TMR0                             EXTERNAL      00000000              0
_TMR1                             EXTERNAL      00000000              0
_TMR1H                            EXTERNAL      00000000              0
_TMR1L                            EXTERNAL      00000000              0
_TMR2                             EXTERNAL      00000000              0
_TRISA                            EXTERNAL      00000000              0
_TRISAbits                        EXTERNAL      00000000              0
_TRISB                            EXTERNAL      00000000              0
_TRISBbits                        EXTERNAL      00000000              0
_TRISC                            EXTERNAL      00000000              0
_TRISCbits                        EXTERNAL      00000000              0
_TRISD                            EXTERNAL      00000000              0
_TRISDbits                        EXTERNAL      00000000              0
_TRISE                            EXTERNAL      00000000              0
_TRISEbits                        EXTERNAL      00000000              0
_TXREG                            EXTERNAL      00000000              0
_TXSTA                            EXTERNAL      00000000              0
_TXSTAbits                        EXTERNAL      00000000              0
_WDTE_OFF                         CONSTANT      00003FFB          16379
_WDTE_ON                          CONSTANT      00003FFF          16383
_WDT_OFF                          CONSTANT      00003FFB          16379
_WDT_ON                           CONSTANT      00003FFF          16383
_WRT_1FOURTH                      CONSTANT      00003BFF          15359
_WRT_256                          CONSTANT      00003DFF          15871
_WRT_HALF                         CONSTANT      000039FF          14847
_WRT_OFF                          CONSTANT      00003FFF          16383
_XT_OSC                           CONSTANT      00003FFD          16381
__14_BIT                          CONSTANT      00000001              1
__16F877A                         CONSTANT      00000001              1
__ACTIVE_BANK_ADDR                VARIABLE      FFFFFFFF             -1
__ACTIVE_PAGE_ADDR                VARIABLE      FFFFFFFF             -1
__ASSUMED_BANK_ADDR               VARIABLE      FFFFFFFF             -1
__BANK_0                          CONSTANT      00000000              0
__BANK_1                          CONSTANT      00000080            128
__BANK_2                          CONSTANT      00000100            256
gpasm-1.5.0 #1285 (Sep 12 2016) obj\Release\m   10-28-2017  12:33:54        PAGE 65


SYMBOL TABLE
  LABEL                              TYPE        VALUE         VALUE          VALUE
                                                 (hex)         (dec)          (text)

__BANK_3                          CONSTANT      00000180            384
__BANK_BITS                       CONSTANT      00000180            384
__BANK_FIRST                      CONSTANT      00000000              0
__BANK_INV                        CONSTANT      FFFFFFFF             -1
__BANK_LAST                       CONSTANT      00000180            384
__BANK_MASK                       CONSTANT      0000007F            127
__BANK_SHIFT                      CONSTANT      00000007              7
__BANK_SIZE                       CONSTANT      00000080            128
__CODE_END                        CONSTANT      00001FFF           8191
__CODE_START                      CONSTANT      00000000              0
__COMMON_RAM_END                  CONSTANT      0000007F            127
__COMMON_RAM_START                CONSTANT      00000070            112
__CONFIG_END                      CONSTANT      00002007           8199
__CONFIG_START                    CONSTANT      00002007           8199
__EEPROM_END                      CONSTANT      000021FF           8703
__EEPROM_START                    CONSTANT      00002100           8448
__GPUTILS_SVN_VERSION             CONSTANT      00000505           1285
__GPUTILS_VERSION_MAJOR           CONSTANT      00000001              1
__GPUTILS_VERSION_MICRO           CONSTANT      00000000              0
__GPUTILS_VERSION_MINOR           CONSTANT      00000005              5
__IDLOCS_END                      CONSTANT      00002003           8195
__IDLOCS_START                    CONSTANT      00002000           8192
__NUM_BANKS                       CONSTANT      00000004              4
__NUM_PAGES                       CONSTANT      00000004              4
__PAGE_0                          CONSTANT      00000000              0
__PAGE_1                          CONSTANT      00000800           2048
__PAGE_2                          CONSTANT      00001000           4096
__PAGE_3                          CONSTANT      00001800           6144
__PAGE_BITS                       CONSTANT      00001800           6144
__PAGE_FIRST                      CONSTANT      00000000              0
__PAGE_INV                        CONSTANT      FFFFFFFF             -1
__PAGE_LAST                       CONSTANT      00001800           6144
__PAGE_MASK                       CONSTANT      000007FF           2047
__PAGE_SHIFT                      CONSTANT      0000000B             11
__PAGE_SIZE                       CONSTANT      00000800           2048
__VECTOR_INT                      CONSTANT      00000004              4
__VECTOR_RESET                    CONSTANT      00000000              0
__WHILE_LOOP_COUNT_MAX            CONSTANT      000000FF            255
___str_0                          ADDRESS       00000000              0
___str_1                          ADDRESS       00000000              0
___str_2                          ADDRESS       00000000              0
___str_3                          ADDRESS       00000000              0
___str_4                          ADDRESS       00000000              0
___str_5                          ADDRESS       00000000              0
___str_6                          ADDRESS       00000000              0
___str_7                          ADDRESS       00000000              0
__divuchar                        EXTERNAL      00000000              0
__gptrget1                        EXTERNAL      00000000              0
__gptrput1                        EXTERNAL      00000000              0
__moduchar                        EXTERNAL      00000000              0
__mulchar                         EXTERNAL      00000000              0
__sdcc_gsinit_startup             EXTERNAL      00000000              0
gpasm-1.5.0 #1285 (Sep 12 2016) obj\Release\m   10-28-2017  12:33:54        PAGE 66


SYMBOL TABLE
  LABEL                              TYPE        VALUE         VALUE          VALUE
                                                 (hex)         (dec)          (text)

_bisiesto                         GLOBAL        00000000              0
_cicloTimeSet                     GLOBAL        00000000              0
_decimalToBCD                     GLOBAL        00000000              0
_delay_ms                         GLOBAL        00000000              0
_diasDelMes                       GLOBAL        00000000              0
_editMenuState                    GLOBAL        00000000              0
_main                             GLOBAL        00000000              0
_setup                            GLOBAL        00000000              0
_timeSet                          GLOBAL        00000000              0
_timeShow                         GLOBAL        00000000              0
r0x100A                           STATIC        00000002              2
r0x100B                           STATIC        00000003              3
r0x100C                           STATIC        00000004              4
r0x100D                           STATIC        00000005              5
r0x100E                           STATIC        00000006              6
r0x100F                           STATIC        00000007              7
r0x101A                           STATIC        00000011             17
r0x101B                           STATIC        00000013             19
r0x101C                           STATIC        00000012             18
r0x101D                           STATIC        00000014             20
r0x101E                           STATIC        00000015             21
r0x101F                           STATIC        00000018             24
r0x1008                           STATIC        00000001              1
r0x1009                           STATIC        00000000              0
r0x1010                           STATIC        00000008              8
r0x1011                           STATIC        00000009              9
r0x1013                           STATIC        0000000A             10
r0x1014                           STATIC        0000000B             11
r0x1015                           STATIC        0000000C             12
r0x1016                           STATIC        0000000D             13
r0x1017                           STATIC        0000000E             14
r0x1018                           STATIC        0000000F             15
r0x1019                           STATIC        00000010             16
r0x1020                           STATIC        00000017             23
r0x1021                           STATIC        00000016             22
r0x1022                           STATIC        00000019             25
r0x1023                           STATIC        0000001A             26
r0x1024                           STATIC        0000001B             27
r0x1025                           STATIC        0000001D             29
r0x1026                           STATIC        0000001C             28
r0x1027                           STATIC        0000001E             30

Errors   :     0
Warnings :     0 reported,     0 suppressed
Messages :     0 reported,     0 suppressed

