gpasm-1.5.0 #1285 (Sep 12 2016) obj\Release\m   10-20-2017  22:10:08        PAGE  1


LOC    OBJECT CODE    LINE  SOURCE TEXT
  VALUE

                      00001 ;--------------------------------------------------------
                      00002 ; File Created by SDCC : free open source ANSI-C Compiler
                      00003 ; Version 3.6.0 #9615 (MINGW64)
                      00004 ;--------------------------------------------------------
                      00005 ; PIC port for the 14-bit core
                      00006 ;--------------------------------------------------------
                      00007 ;       .file   "main.c"
                      00008         list    p=16f84a
                      00009         radix dec
                      00010         include "p16f84a.inc"
                      00001         LIST
                      00002 
                      00003 ;==========================================================================
                      00004 ; Build date : Oct 21 2015
                      00005 ;  MPASM PIC16F84A processor include
                      00006 ; 
                      00007 ;  (c) Copyright 1999-2015 Microchip Technology, All rights reserved
                      00008 ;==========================================================================
                      00009 
                      00209         LIST
                      00011 ;--------------------------------------------------------
                      00012 ; external declarations
                      00013 ;--------------------------------------------------------
  0000                00014         extern  _STATUSbits
  0000                00015         extern  _PORTAbits
  0000                00016         extern  _PORTBbits
  0000                00017         extern  _INTCONbits
  0000                00018         extern  _OPTION_REGbits
  0000                00019         extern  _TRISAbits
  0000                00020         extern  _TRISBbits
  0000                00021         extern  _EECON1bits
  0000                00022         extern  _INDF
  0000                00023         extern  _TMR0
  0000                00024         extern  _PCL
  0000                00025         extern  _STATUS
  0000                00026         extern  _FSR
  0000                00027         extern  _PORTA
  0000                00028         extern  _PORTB
  0000                00029         extern  _EEDATA
  0000                00030         extern  _EEADR
  0000                00031         extern  _PCLATH
  0000                00032         extern  _INTCON
  0000                00033         extern  _OPTION_REG
  0000                00034         extern  _TRISA
  0000                00035         extern  _TRISB
  0000                00036         extern  _EECON1
  0000                00037         extern  _EECON2
  0000                00038         extern  __sdcc_gsinit_startup
                      00039 ;--------------------------------------------------------
                      00040 ; global declarations
                      00041 ;--------------------------------------------------------
  0000                00042         global  _izquierda
  0000                00043         global  _derecha
gpasm-1.5.0 #1285 (Sep 12 2016) obj\Release\m   10-20-2017  22:10:08        PAGE  2


LOC    OBJECT CODE    LINE  SOURCE TEXT
  VALUE

  0000                00044         global  _delay_ms
  0000                00045         global  _main
                      00046 
  0000                00047         global PSAVE
  0000                00048         global SSAVE
  0000                00049         global WSAVE
  0000                00050         global STK12
  0000                00051         global STK11
  0000                00052         global STK10
  0000                00053         global STK09
  0000                00054         global STK08
  0000                00055         global STK07
  0000                00056         global STK06
  0000                00057         global STK05
  0000                00058         global STK04
  0000                00059         global STK03
  0000                00060         global STK02
  0000                00061         global STK01
  0000                00062         global STK00
                      00063 
                      00064 sharebank udata_ovr 0x000C
000C                  00065 PSAVE   res 1
000D                  00066 SSAVE   res 1
000E                  00067 WSAVE   res 1
000F                  00068 STK12   res 1
0010                  00069 STK11   res 1
0011                  00070 STK10   res 1
0012                  00071 STK09   res 1
0013                  00072 STK08   res 1
0014                  00073 STK07   res 1
0015                  00074 STK06   res 1
0016                  00075 STK05   res 1
0017                  00076 STK04   res 1
0018                  00077 STK03   res 1
0019                  00078 STK02   res 1
001A                  00079 STK01   res 1
001B                  00080 STK00   res 1
                      00081 
                      00082 ;--------------------------------------------------------
                      00083 ; global definitions
                      00084 ;--------------------------------------------------------
                      00085 ;--------------------------------------------------------
                      00086 ; absolute symbol definitions
                      00087 ;--------------------------------------------------------
                      00088 ;--------------------------------------------------------
                      00089 ; compiler-defined variables
                      00090 ;--------------------------------------------------------
                      00091 UDL_main_0      udata
0000                  00092 r0x1001 res     1
0001                  00093 r0x1000 res     1
0002                  00094 r0x1002 res     1
0003                  00095 r0x1003 res     1
                      00096 ;--------------------------------------------------------
gpasm-1.5.0 #1285 (Sep 12 2016) obj\Release\m   10-20-2017  22:10:08        PAGE  3


LOC    OBJECT CODE    LINE  SOURCE TEXT
  VALUE

                      00097 ; initialized data
                      00098 ;--------------------------------------------------------
                      00099 ;--------------------------------------------------------
                      00100 ; overlayable items in internal ram 
                      00101 ;--------------------------------------------------------
                      00102 ;       udata_ovr
                      00103 ;--------------------------------------------------------
                      00104 ; reset vector 
                      00105 ;--------------------------------------------------------
                      00106 STARTUP code 0x0000
0000   0000           00107         nop
Message[1304]: Page selection not needed for this device. No code generated.
                      00108         pagesel __sdcc_gsinit_startup
0001   2???           00109         goto    __sdcc_gsinit_startup
                      00110 ;--------------------------------------------------------
                      00111 ; code
                      00112 ;--------------------------------------------------------
                      00113 code_main       code
                      00114 ;***
                      00115 ;  pBlock Stats: dbName = M
                      00116 ;***
                      00117 ;has an exit
                      00118 ;functions called:
                      00119 ;   _derecha
                      00120 ;   _izquierda
                      00121 ;   _derecha
                      00122 ;   _izquierda
                      00123 ;; Starting pCode block
                      00124 S_main__main    code
0000                  00125 _main:
                      00126 ; 2 exit points
                      00127 ;       .line   33; "main.c"    TRISA = 0xF0;                 //porta como salida menos RA4(desactivado)
0000   30F0           00128         MOVLW   0xf0
0001   0???           00129         BANKSEL _TRISA
0002   00??           00130         MOVWF   _TRISA
                      00131 ;       .line   34; "main.c"    GIE   = 0;                    //todas las interrupciones desactivadas
0003   0???           00132         BANKSEL _INTCONbits
0004   13??           00133         BCF     _INTCONbits,7
0005                  00134 _00106_DS_:
                      00135 ;       .line   37; "main.c"    derecha();
Message[1304]: Page selection not needed for this device. No code generated.
                      00136         PAGESEL _derecha
0005   2???           00137         CALL    _derecha
Message[1304]: Page selection not needed for this device. No code generated.
                      00138         PAGESEL $
                      00139 ;       .line   38; "main.c"    izquierda();
Message[1304]: Page selection not needed for this device. No code generated.
                      00140         PAGESEL _izquierda
0006   2???           00141         CALL    _izquierda
Message[1304]: Page selection not needed for this device. No code generated.
                      00142         PAGESEL $
0007   2???           00143         GOTO    _00106_DS_
0008   0008           00144         RETURN  
gpasm-1.5.0 #1285 (Sep 12 2016) obj\Release\m   10-20-2017  22:10:08        PAGE  4


LOC    OBJECT CODE    LINE  SOURCE TEXT
  VALUE

                      00145 ; exit point of _main
                      00146 
                      00147 ;***
                      00148 ;  pBlock Stats: dbName = C
                      00149 ;***
                      00150 ;has an exit
                      00151 ;functions called:
                      00152 ;   _delay_ms
                      00153 ;   _delay_ms
                      00154 ;   _delay_ms
                      00155 ;   _delay_ms
                      00156 ;1 compiler assigned register :
                      00157 ;   STK00
                      00158 ;; Starting pCode block
                      00159 S_main__izquierda       code
0000                  00160 _izquierda:
                      00161 ; 2 exit points
                      00162 ;       .line   71; "main.c"    RA3 = 0;
0000   0???           00163         BANKSEL _PORTAbits
0001   11??           00164         BCF     _PORTAbits,3
                      00165 ;       .line   72; "main.c"    RA2 = 1;
0002   15??           00166         BSF     _PORTAbits,2
                      00167 ;       .line   73; "main.c"    delay_ms(300);
0003   302C           00168         MOVLW   0x2c
0004   00??           00169         MOVWF   STK00
0005   3001           00170         MOVLW   0x01
Message[1304]: Page selection not needed for this device. No code generated.
                      00171         PAGESEL _delay_ms
0006   2???           00172         CALL    _delay_ms
Message[1304]: Page selection not needed for this device. No code generated.
                      00173         PAGESEL $
                      00174 ;       .line   74; "main.c"    RA2 = 0;
0007   0???           00175         BANKSEL _PORTAbits
0008   11??           00176         BCF     _PORTAbits,2
                      00177 ;       .line   75; "main.c"    RA1 = 1;
0009   14??           00178         BSF     _PORTAbits,1
                      00179 ;       .line   76; "main.c"    delay_ms(300);
000A   302C           00180         MOVLW   0x2c
000B   00??           00181         MOVWF   STK00
000C   3001           00182         MOVLW   0x01
Message[1304]: Page selection not needed for this device. No code generated.
                      00183         PAGESEL _delay_ms
000D   2???           00184         CALL    _delay_ms
Message[1304]: Page selection not needed for this device. No code generated.
                      00185         PAGESEL $
                      00186 ;       .line   77; "main.c"    RA1 = 0;
000E   0???           00187         BANKSEL _PORTAbits
000F   10??           00188         BCF     _PORTAbits,1
0010   0008           00189         RETURN  
                      00190 ; exit point of _izquierda
                      00191 
                      00192 ;***
                      00193 ;  pBlock Stats: dbName = C
gpasm-1.5.0 #1285 (Sep 12 2016) obj\Release\m   10-20-2017  22:10:08        PAGE  5


LOC    OBJECT CODE    LINE  SOURCE TEXT
  VALUE

                      00194 ;***
                      00195 ;has an exit
                      00196 ;functions called:
                      00197 ;   _delay_ms
                      00198 ;   _delay_ms
                      00199 ;   _delay_ms
                      00200 ;   _delay_ms
                      00201 ;   _delay_ms
                      00202 ;   _delay_ms
                      00203 ;   _delay_ms
                      00204 ;   _delay_ms
                      00205 ;1 compiler assigned register :
                      00206 ;   STK00
                      00207 ;; Starting pCode block
                      00208 S_main__derecha code
0000                  00209 _derecha:
                      00210 ; 2 exit points
                      00211 ;       .line   56; "main.c"    RA0 = 1;
0000   0???           00212         BANKSEL _PORTAbits
0001   14??           00213         BSF     _PORTAbits,0
                      00214 ;       .line   57; "main.c"    delay_ms(300);  // ~300ms @ 4MHz
0002   302C           00215         MOVLW   0x2c
0003   00??           00216         MOVWF   STK00
0004   3001           00217         MOVLW   0x01
Message[1304]: Page selection not needed for this device. No code generated.
                      00218         PAGESEL _delay_ms
0005   2???           00219         CALL    _delay_ms
Message[1304]: Page selection not needed for this device. No code generated.
                      00220         PAGESEL $
                      00221 ;       .line   58; "main.c"    RA0 = 0;
0006   0???           00222         BANKSEL _PORTAbits
0007   10??           00223         BCF     _PORTAbits,0
                      00224 ;       .line   59; "main.c"    RA1 = 1;
0008   14??           00225         BSF     _PORTAbits,1
                      00226 ;       .line   60; "main.c"    delay_ms(300);
0009   302C           00227         MOVLW   0x2c
000A   00??           00228         MOVWF   STK00
000B   3001           00229         MOVLW   0x01
Message[1304]: Page selection not needed for this device. No code generated.
                      00230         PAGESEL _delay_ms
000C   2???           00231         CALL    _delay_ms
Message[1304]: Page selection not needed for this device. No code generated.
                      00232         PAGESEL $
                      00233 ;       .line   61; "main.c"    RA1 = 0;
000D   0???           00234         BANKSEL _PORTAbits
000E   10??           00235         BCF     _PORTAbits,1
                      00236 ;       .line   62; "main.c"    RA2 = 1;
000F   15??           00237         BSF     _PORTAbits,2
                      00238 ;       .line   63; "main.c"    delay_ms(300);
0010   302C           00239         MOVLW   0x2c
0011   00??           00240         MOVWF   STK00
0012   3001           00241         MOVLW   0x01
Message[1304]: Page selection not needed for this device. No code generated.
gpasm-1.5.0 #1285 (Sep 12 2016) obj\Release\m   10-20-2017  22:10:08        PAGE  6


LOC    OBJECT CODE    LINE  SOURCE TEXT
  VALUE

                      00242         PAGESEL _delay_ms
0013   2???           00243         CALL    _delay_ms
Message[1304]: Page selection not needed for this device. No code generated.
                      00244         PAGESEL $
                      00245 ;       .line   64; "main.c"    RA2 = 0;
0014   0???           00246         BANKSEL _PORTAbits
0015   11??           00247         BCF     _PORTAbits,2
                      00248 ;       .line   65; "main.c"    RA3 = 1;
0016   15??           00249         BSF     _PORTAbits,3
                      00250 ;       .line   66; "main.c"    delay_ms(300);
0017   302C           00251         MOVLW   0x2c
0018   00??           00252         MOVWF   STK00
0019   3001           00253         MOVLW   0x01
Message[1304]: Page selection not needed for this device. No code generated.
                      00254         PAGESEL _delay_ms
001A   2???           00255         CALL    _delay_ms
Message[1304]: Page selection not needed for this device. No code generated.
                      00256         PAGESEL $
001B   0008           00257         RETURN  
                      00258 ; exit point of _derecha
                      00259 
                      00260 ;***
                      00261 ;  pBlock Stats: dbName = C
                      00262 ;***
                      00263 ;has an exit
                      00264 ;5 compiler assigned registers:
                      00265 ;   r0x1000
                      00266 ;   STK00
                      00267 ;   r0x1001
                      00268 ;   r0x1002
                      00269 ;   r0x1003
                      00270 ;; Starting pCode block
                      00271 S_main__delay_ms        code
0000                  00272 _delay_ms:
                      00273 ; 2 exit points
                      00274 ;       .line   43; "main.c"    void delay_ms(int ms)
0000   00??           00275         MOVWF   r0x1000
0001   08??           00276         MOVF    STK00,W
0002   00??           00277         MOVWF   r0x1001
0003                  00278 _00114_DS_:
                      00279 ;       .line   47; "main.c"    while(ms--)
0003   08??           00280         MOVF    r0x1001,W
0004   00??           00281         MOVWF   r0x1002
0005   08??           00282         MOVF    r0x1000,W
0006   00??           00283         MOVWF   r0x1003
0007   30FF           00284         MOVLW   0xff
0008   07??           00285         ADDWF   r0x1001,F
0009   1C03           00286         BTFSS   STATUS,0
000A   03??           00287         DECF    r0x1000,F
000B   08??           00288         MOVF    r0x1002,W
000C   04??           00289         IORWF   r0x1003,W
000D   1903           00290         BTFSC   STATUS,2
000E   2???           00291         GOTO    _00117_DS_
gpasm-1.5.0 #1285 (Sep 12 2016) obj\Release\m   10-20-2017  22:10:08        PAGE  7


LOC    OBJECT CODE    LINE  SOURCE TEXT
  VALUE

                      00292 ;       .line   50; "main.c"    while(aux--);
000F   3032           00293         MOVLW   0x32
0010   00??           00294         MOVWF   r0x1002
0011                  00295 _00111_DS_:
0011   08??           00296         MOVF    r0x1002,W
0012   00??           00297         MOVWF   r0x1003
0013   03??           00298         DECF    r0x1002,F
0014   08??           00299         MOVF    r0x1003,W
0015   1903           00300         BTFSC   STATUS,2
0016   2???           00301         GOTO    _00114_DS_
0017   2???           00302         GOTO    _00111_DS_
0018                  00303 _00117_DS_:
0018   0008           00304         RETURN  
                      00305 ; exit point of _delay_ms
                      00306 
                      00307 
                      00308 ;       code size estimation:
                      00309 ;          70+   25 =    95 instructions (  240 byte)
                      00310 
                      00311         end
gpasm-1.5.0 #1285 (Sep 12 2016) obj\Release\m   10-20-2017  22:10:08        PAGE  8


SYMBOL TABLE
  LABEL                              TYPE        VALUE         VALUE          VALUE
                                                 (hex)         (dec)          (text)

C                                 CONSTANT      00000000              0
DC                                CONSTANT      00000001              1
EEADR                             CONSTANT      00000009              9
EECON1                            CONSTANT      00000088            136
EECON2                            CONSTANT      00000089            137
EEDATA                            CONSTANT      00000008              8
EEIE                              CONSTANT      00000006              6
EEIF                              CONSTANT      00000004              4
F                                 CONSTANT      00000001              1
FSR                               CONSTANT      00000004              4
GIE                               CONSTANT      00000007              7
INDF                              CONSTANT      00000000              0
INTCON                            CONSTANT      0000000B             11
INTE                              CONSTANT      00000004              4
INTEDG                            CONSTANT      00000006              6
INTF                              CONSTANT      00000001              1
IRP                               CONSTANT      00000007              7
NOT_PD                            CONSTANT      00000003              3
NOT_RBPU                          CONSTANT      00000007              7
NOT_TO                            CONSTANT      00000004              4
OPTION_REG                        CONSTANT      00000081            129
PCL                               CONSTANT      00000002              2
PCLATH                            CONSTANT      0000000A             10
PORTA                             CONSTANT      00000005              5
PORTB                             CONSTANT      00000006              6
PS0                               CONSTANT      00000000              0
PS1                               CONSTANT      00000001              1
PS2                               CONSTANT      00000002              2
PSA                               CONSTANT      00000003              3
PSAVE                             GLOBAL        0000000C             12
RA0                               CONSTANT      00000000              0
RA1                               CONSTANT      00000001              1
RA2                               CONSTANT      00000002              2
RA3                               CONSTANT      00000003              3
RA4                               CONSTANT      00000004              4
RB0                               CONSTANT      00000000              0
RB1                               CONSTANT      00000001              1
RB2                               CONSTANT      00000002              2
RB3                               CONSTANT      00000003              3
RB4                               CONSTANT      00000004              4
RB5                               CONSTANT      00000005              5
RB6                               CONSTANT      00000006              6
RB7                               CONSTANT      00000007              7
RBIE                              CONSTANT      00000003              3
RBIF                              CONSTANT      00000000              0
RD                                CONSTANT      00000000              0
RP0                               CONSTANT      00000005              5
RP1                               CONSTANT      00000006              6
SSAVE                             GLOBAL        0000000D             13
STATUS                            CONSTANT      00000003              3
STK00                             GLOBAL        0000001B             27
STK01                             GLOBAL        0000001A             26
gpasm-1.5.0 #1285 (Sep 12 2016) obj\Release\m   10-20-2017  22:10:08        PAGE  9


SYMBOL TABLE
  LABEL                              TYPE        VALUE         VALUE          VALUE
                                                 (hex)         (dec)          (text)

STK02                             GLOBAL        00000019             25
STK03                             GLOBAL        00000018             24
STK04                             GLOBAL        00000017             23
STK05                             GLOBAL        00000016             22
STK06                             GLOBAL        00000015             21
STK07                             GLOBAL        00000014             20
STK08                             GLOBAL        00000013             19
STK09                             GLOBAL        00000012             18
STK10                             GLOBAL        00000011             17
STK11                             GLOBAL        00000010             16
STK12                             GLOBAL        0000000F             15
T0CS                              CONSTANT      00000005              5
T0IE                              CONSTANT      00000005              5
T0IF                              CONSTANT      00000002              2
T0SE                              CONSTANT      00000004              4
TMR0                              CONSTANT      00000001              1
TMR0IE                            CONSTANT      00000005              5
TMR0IF                            CONSTANT      00000002              2
TRISA                             CONSTANT      00000085            133
TRISA0                            CONSTANT      00000000              0
TRISA1                            CONSTANT      00000001              1
TRISA2                            CONSTANT      00000002              2
TRISA3                            CONSTANT      00000003              3
TRISA4                            CONSTANT      00000004              4
TRISB                             CONSTANT      00000086            134
TRISB0                            CONSTANT      00000000              0
TRISB1                            CONSTANT      00000001              1
TRISB2                            CONSTANT      00000002              2
TRISB3                            CONSTANT      00000003              3
TRISB4                            CONSTANT      00000004              4
TRISB5                            CONSTANT      00000005              5
TRISB6                            CONSTANT      00000006              6
TRISB7                            CONSTANT      00000007              7
W                                 CONSTANT      00000000              0
WR                                CONSTANT      00000001              1
WREN                              CONSTANT      00000002              2
WRERR                             CONSTANT      00000003              3
WSAVE                             GLOBAL        0000000E             14
Z                                 CONSTANT      00000002              2
_00106_DS_                        ADDRESS       00000005              5
_00111_DS_                        ADDRESS       00000011             17
_00114_DS_                        ADDRESS       00000003              3
_00117_DS_                        ADDRESS       00000018             24
_CONFIG                           CONSTANT      00002007           8199
_CP_OFF                           CONSTANT      00003FFF          16383
_CP_ON                            CONSTANT      0000000F             15
_DEVID1                           CONSTANT      00002006           8198
_EEADR                            EXTERNAL      00000000              0
_EECON1                           EXTERNAL      00000000              0
_EECON1bits                       EXTERNAL      00000000              0
_EECON2                           EXTERNAL      00000000              0
_EEDATA                           EXTERNAL      00000000              0
gpasm-1.5.0 #1285 (Sep 12 2016) obj\Release\m   10-20-2017  22:10:08        PAGE 10


SYMBOL TABLE
  LABEL                              TYPE        VALUE         VALUE          VALUE
                                                 (hex)         (dec)          (text)

_FOSC_EXTRC                       CONSTANT      00003FFF          16383
_FOSC_HS                          CONSTANT      00003FFE          16382
_FOSC_LP                          CONSTANT      00003FFC          16380
_FOSC_XT                          CONSTANT      00003FFD          16381
_FSR                              EXTERNAL      00000000              0
_HS_OSC                           CONSTANT      00003FFE          16382
_IDLOC0                           CONSTANT      00002000           8192
_IDLOC1                           CONSTANT      00002001           8193
_IDLOC2                           CONSTANT      00002002           8194
_IDLOC3                           CONSTANT      00002003           8195
_INDF                             EXTERNAL      00000000              0
_INTCON                           EXTERNAL      00000000              0
_INTCONbits                       EXTERNAL      00000000              0
_LP_OSC                           CONSTANT      00003FFC          16380
_OPTION_REG                       EXTERNAL      00000000              0
_OPTION_REGbits                   EXTERNAL      00000000              0
_PCL                              EXTERNAL      00000000              0
_PCLATH                           EXTERNAL      00000000              0
_PORTA                            EXTERNAL      00000000              0
_PORTAbits                        EXTERNAL      00000000              0
_PORTB                            EXTERNAL      00000000              0
_PORTBbits                        EXTERNAL      00000000              0
_PWRTE_OFF                        CONSTANT      00003FFF          16383
_PWRTE_ON                         CONSTANT      00003FF7          16375
_RC_OSC                           CONSTANT      00003FFF          16383
_STATUS                           EXTERNAL      00000000              0
_STATUSbits                       EXTERNAL      00000000              0
_TMR0                             EXTERNAL      00000000              0
_TRISA                            EXTERNAL      00000000              0
_TRISAbits                        EXTERNAL      00000000              0
_TRISB                            EXTERNAL      00000000              0
_TRISBbits                        EXTERNAL      00000000              0
_WDTE_OFF                         CONSTANT      00003FFB          16379
_WDTE_ON                          CONSTANT      00003FFF          16383
_WDT_OFF                          CONSTANT      00003FFB          16379
_WDT_ON                           CONSTANT      00003FFF          16383
_XT_OSC                           CONSTANT      00003FFD          16381
__14_BIT                          CONSTANT      00000001              1
__16F84A                          CONSTANT      00000001              1
__ACTIVE_BANK_ADDR                VARIABLE      FFFFFFFF             -1
__ACTIVE_PAGE_ADDR                VARIABLE      FFFFFFFF             -1
__ASSUMED_BANK_ADDR               VARIABLE      FFFFFFFF             -1
__BANK_0                          CONSTANT      00000000              0
__BANK_1                          CONSTANT      00000080            128
__BANK_BITS                       CONSTANT      00000080            128
__BANK_FIRST                      CONSTANT      00000000              0
__BANK_INV                        CONSTANT      FFFFFFFF             -1
__BANK_LAST                       CONSTANT      00000080            128
__BANK_MASK                       CONSTANT      0000007F            127
__BANK_SHIFT                      CONSTANT      00000007              7
__BANK_SIZE                       CONSTANT      00000080            128
__CODE_END                        CONSTANT      000003FF           1023
gpasm-1.5.0 #1285 (Sep 12 2016) obj\Release\m   10-20-2017  22:10:08        PAGE 11


SYMBOL TABLE
  LABEL                              TYPE        VALUE         VALUE          VALUE
                                                 (hex)         (dec)          (text)

__CODE_START                      CONSTANT      00000000              0
__COMMON_RAM_END                  CONSTANT      0000004F             79
__COMMON_RAM_START                CONSTANT      0000000C             12
__CONFIG_END                      CONSTANT      00002007           8199
__CONFIG_START                    CONSTANT      00002007           8199
__EEPROM_END                      CONSTANT      0000213F           8511
__EEPROM_START                    CONSTANT      00002100           8448
__GPUTILS_SVN_VERSION             CONSTANT      00000505           1285
__GPUTILS_VERSION_MAJOR           CONSTANT      00000001              1
__GPUTILS_VERSION_MICRO           CONSTANT      00000000              0
__GPUTILS_VERSION_MINOR           CONSTANT      00000005              5
__IDLOCS_END                      CONSTANT      00002003           8195
__IDLOCS_START                    CONSTANT      00002000           8192
__NUM_BANKS                       CONSTANT      00000002              2
__NUM_PAGES                       CONSTANT      00000001              1
__PAGE_0                          CONSTANT      00000000              0
__PAGE_BITS                       CONSTANT      00001800           6144
__PAGE_FIRST                      CONSTANT      00000000              0
__PAGE_INV                        CONSTANT      FFFFFFFF             -1
__PAGE_LAST                       CONSTANT      00000000              0
__PAGE_MASK                       CONSTANT      000007FF           2047
__PAGE_SHIFT                      CONSTANT      0000000B             11
__PAGE_SIZE                       CONSTANT      00000800           2048
__VECTOR_INT                      CONSTANT      00000004              4
__VECTOR_RESET                    CONSTANT      00000000              0
__WHILE_LOOP_COUNT_MAX            CONSTANT      000000FF            255
__sdcc_gsinit_startup             EXTERNAL      00000000              0
_delay_ms                         GLOBAL        00000000              0
_derecha                          GLOBAL        00000000              0
_izquierda                        GLOBAL        00000000              0
_main                             GLOBAL        00000000              0
r0x1000                           STATIC        00000001              1
r0x1001                           STATIC        00000000              0
r0x1002                           STATIC        00000002              2
r0x1003                           STATIC        00000003              3

Errors   :     0
Warnings :     0 reported,     0 suppressed
Messages :    17 reported,     0 suppressed

